In archive libstp.a:

ASTKind.o:     file format elf32-i386

SYMBOL TABLE:
00000000 l    df *ABS*	00000000 ASTKind.cpp
00000000 l    d  .text	00000000 .text
00000000 l    d  .data	00000000 .data
00000000 l    d  .bss	00000000 .bss
00000000 l    d  .rodata.str1.1	00000000 .rodata.str1.1
00000000 l    d  .note.GNU-stack	00000000 .note.GNU-stack
00000000 l    d  .comment	00000000 .comment
00000000 g     O .data	00000036 _ZN4BEEV16_kind_categoriesE
00000040 g     O .data	000000d8 _ZN4BEEV11_kind_namesE



AST.o:     file format elf32-i386

SYMBOL TABLE:
00000000 l    df *ABS*	00000000 AST.cpp
00000000 l    d  .text	00000000 .text
00000000 l    d  .data	00000000 .data
00000000 l    d  .bss	00000000 .bss
00000000 l    d  .gnu.linkonce.r._ZTIN4BEEV11ASTInternalE	00000000 .gnu.linkonce.r._ZTIN4BEEV11ASTInternalE
00000000 l    d  .gnu.linkonce.r._ZTSN4BEEV11ASTInternalE	00000000 .gnu.linkonce.r._ZTSN4BEEV11ASTInternalE
00000000 l    d  .gnu.linkonce.r._ZTIN4BEEV11ASTInteriorE	00000000 .gnu.linkonce.r._ZTIN4BEEV11ASTInteriorE
00000000 l    d  .gnu.linkonce.r._ZTSN4BEEV11ASTInteriorE	00000000 .gnu.linkonce.r._ZTSN4BEEV11ASTInteriorE
00000000 l    d  .gnu.linkonce.r._ZTIN4BEEV9ASTSymbolE	00000000 .gnu.linkonce.r._ZTIN4BEEV9ASTSymbolE
00000000 l    d  .gnu.linkonce.r._ZTSN4BEEV9ASTSymbolE	00000000 .gnu.linkonce.r._ZTSN4BEEV9ASTSymbolE
00000000 l    d  .gnu.linkonce.r._ZTIN4BEEV10ASTBVConstE	00000000 .gnu.linkonce.r._ZTIN4BEEV10ASTBVConstE
00000000 l    d  .gnu.linkonce.r._ZTSN4BEEV10ASTBVConstE	00000000 .gnu.linkonce.r._ZTSN4BEEV10ASTBVConstE
00000000 l    d  .gnu.linkonce.r._ZTVN4BEEV11ASTInternalE	00000000 .gnu.linkonce.r._ZTVN4BEEV11ASTInternalE
00000000 l    d  .gnu.linkonce.r._ZTVN4BEEV11ASTInteriorE	00000000 .gnu.linkonce.r._ZTVN4BEEV11ASTInteriorE
00000000 l    d  .gnu.linkonce.r._ZTVN4BEEV10ASTBVConstE	00000000 .gnu.linkonce.r._ZTVN4BEEV10ASTBVConstE
00000000 l    d  .gnu.linkonce.r._ZTVN4BEEV9ASTSymbolE	00000000 .gnu.linkonce.r._ZTVN4BEEV9ASTSymbolE
00000000 l    d  .ctors	00000000 .ctors
00000320 l     F .text	00000013 _GLOBAL__I__ZN4BEEV5statsE
00000020 l     O .bss	00000004 _ZN7MINISAT9lit_ErrorE
00000024 l     O .bss	00000004 _ZN7MINISAT9lit_UndefE
00000028 l     O .bss	00000004 _ZN7MINISAT7l_UndefE
0000002c l     O .bss	00000004 _ZN7MINISAT7l_FalseE
00000030 l     O .bss	00000004 _ZN7MINISAT6l_TrueE
00000034 l     O .bss	00000001 _ZSt8__ioinit
00000000 l    d  .rodata	00000000 .rodata
00000000 l     O .rodata	00000070 _ZN9__gnu_cxx16__stl_prime_listE
00000000 l    d  .gnu.linkonce.t._ZNK4BEEV11ASTInternal7GetKindEv	00000000 .gnu.linkonce.t._ZNK4BEEV11ASTInternal7GetKindEv
00000000 l    d  .gnu.linkonce.t._ZNK4BEEV11ASTInternal11GetChildrenEv	00000000 .gnu.linkonce.t._ZNK4BEEV11ASTInternal11GetChildrenEv
00000000 l    d  .rodata.str1.1	00000000 .rodata.str1.1
00000000 l    d  .gnu.linkonce.t._ZN4BEEV11ASTInternal9nodeprintERSo	00000000 .gnu.linkonce.t._ZN4BEEV11ASTInternal9nodeprintERSo
00000000 l    d  .gnu.linkonce.t._ZN4BEEV11ASTInterior9nodeprintERSo	00000000 .gnu.linkonce.t._ZN4BEEV11ASTInterior9nodeprintERSo
00000000 l    d  .gnu.linkonce.t._ZN4BEEV9ASTSymbol9nodeprintERSo	00000000 .gnu.linkonce.t._ZN4BEEV9ASTSymbol9nodeprintERSo
00000000 l    d  .gnu.linkonce.t._ZN4BEEV7ASTNodeD1Ev	00000000 .gnu.linkonce.t._ZN4BEEV7ASTNodeD1Ev
00000000 l    d  .gnu.linkonce.t._ZSt8_DestroyIPPSt6vectorIN4BEEV7ASTNodeESaIS2_EESaIS5_EEvT_S8_T0_	00000000 .gnu.linkonce.t._ZSt8_DestroyIPPSt6vectorIN4BEEV7ASTNodeESaIS2_EESaIS5_EEvT_S8_T0_
00000000 l    d  .gnu.linkonce.t._ZSt8_DestroyIPPN9__gnu_cxx15_Hashtable_nodeISt4pairIKN4BEEV7ASTNodeES4_EEESaIS8_EEvT_SB_T0_	00000000 .gnu.linkonce.t._ZSt8_DestroyIPPN9__gnu_cxx15_Hashtable_nodeISt4pairIKN4BEEV7ASTNodeES4_EEESaIS8_EEvT_SB_T0_
00000000 l    d  .gnu.linkonce.t._ZSt8_DestroyIPPN9__gnu_cxx15_Hashtable_nodeIPN4BEEV11ASTInteriorEEESaIS6_EEvT_S9_T0_	00000000 .gnu.linkonce.t._ZSt8_DestroyIPPN9__gnu_cxx15_Hashtable_nodeIPN4BEEV11ASTInteriorEEESaIS6_EEvT_S9_T0_
00000000 l    d  .gnu.linkonce.t._ZSt8_DestroyIPPN9__gnu_cxx15_Hashtable_nodeIPN4BEEV9ASTSymbolEEESaIS6_EEvT_S9_T0_	00000000 .gnu.linkonce.t._ZSt8_DestroyIPPN9__gnu_cxx15_Hashtable_nodeIPN4BEEV9ASTSymbolEEESaIS6_EEvT_S9_T0_
00000000 l    d  .gnu.linkonce.t._ZSt8_DestroyIPPN9__gnu_cxx15_Hashtable_nodeIPN4BEEV10ASTBVConstEEESaIS6_EEvT_S9_T0_	00000000 .gnu.linkonce.t._ZSt8_DestroyIPPN9__gnu_cxx15_Hashtable_nodeIPN4BEEV10ASTBVConstEEESaIS6_EEvT_S9_T0_
00000000 l    d  .gnu.linkonce.t._ZSt8_DestroyIPPN9__gnu_cxx15_Hashtable_nodeIN4BEEV7ASTNodeEEESaIS5_EEvT_S8_T0_	00000000 .gnu.linkonce.t._ZSt8_DestroyIPPN9__gnu_cxx15_Hashtable_nodeIN4BEEV7ASTNodeEEESaIS5_EEvT_S8_T0_
00000000 l    d  .gnu.linkonce.t._ZSt8_DestroyIPPN9__gnu_cxx15_Hashtable_nodeISt4pairIKN4BEEV7ASTNodeEiEEESaIS8_EEvT_SB_T0_	00000000 .gnu.linkonce.t._ZSt8_DestroyIPPN9__gnu_cxx15_Hashtable_nodeISt4pairIKN4BEEV7ASTNodeEiEEESaIS8_EEvT_SB_T0_
00000000 l    d  .gnu.linkonce.t._ZSt8_DestroyIPPN9__gnu_cxx15_Hashtable_nodeISt4pairIKN4BEEV7ASTNodeESt6vectorIS4_SaIS4_EEEEESaISB_EEvT_SE_T0_	00000000 .gnu.linkonce.t._ZSt8_DestroyIPPN9__gnu_cxx15_Hashtable_nodeISt4pairIKN4BEEV7ASTNodeESt6vectorIS4_SaIS4_EEEEESaISB_EEvT_SE_T0_
00000000 l    d  .gnu.linkonce.t._ZSt8_DestroyIPPN9__gnu_cxx15_Hashtable_nodeISt4pairIKN4BEEV7ASTNodeEPNS0_8hash_mapIjbNS0_4hashIjEESt8equal_toIjESaIbEEEEEESaISG_EEvT_SJ_T0_	00000000 .gnu.linkonce.t._ZSt8_DestroyIPPN9__gnu_cxx15_Hashtable_nodeISt4pairIKN4BEEV7ASTNodeEPNS0_8hash_mapIjbNS0_4hashIjEESt8equal_toIjESaIbEEEEEESaISG_EEvT_SJ_T0_
00000000 l    d  .gnu.linkonce.t._ZSt6fill_nIPPN9__gnu_cxx15_Hashtable_nodeISt4pairIKN4BEEV7ASTNodeES4_EEEjS8_ET_SA_T0_RKT1_	00000000 .gnu.linkonce.t._ZSt6fill_nIPPN9__gnu_cxx15_Hashtable_nodeISt4pairIKN4BEEV7ASTNodeES4_EEEjS8_ET_SA_T0_RKT1_
00000000 l    d  .gnu.linkonce.t._ZSt24__uninitialized_fill_n_aIPPN9__gnu_cxx15_Hashtable_nodeISt4pairIKN4BEEV7ASTNodeES4_EEEjS8_S8_EvT_T0_RKT1_SaIT2_E	00000000 .gnu.linkonce.t._ZSt24__uninitialized_fill_n_aIPPN9__gnu_cxx15_Hashtable_nodeISt4pairIKN4BEEV7ASTNodeES4_EEEjS8_S8_EvT_T0_RKT1_SaIT2_E
00000000 l    d  .gnu.linkonce.t._ZSt6fill_nIPPN9__gnu_cxx15_Hashtable_nodeIPN4BEEV11ASTInteriorEEEjS6_ET_S8_T0_RKT1_	00000000 .gnu.linkonce.t._ZSt6fill_nIPPN9__gnu_cxx15_Hashtable_nodeIPN4BEEV11ASTInteriorEEEjS6_ET_S8_T0_RKT1_
00000000 l    d  .gnu.linkonce.t._ZSt24__uninitialized_fill_n_aIPPN9__gnu_cxx15_Hashtable_nodeIPN4BEEV11ASTInteriorEEEjS6_S6_EvT_T0_RKT1_SaIT2_E	00000000 .gnu.linkonce.t._ZSt24__uninitialized_fill_n_aIPPN9__gnu_cxx15_Hashtable_nodeIPN4BEEV11ASTInteriorEEEjS6_S6_EvT_T0_RKT1_SaIT2_E
00000000 l    d  .gnu.linkonce.t._ZSt6fill_nIPPN9__gnu_cxx15_Hashtable_nodeIN4BEEV7ASTNodeEEEjS5_ET_S7_T0_RKT1_	00000000 .gnu.linkonce.t._ZSt6fill_nIPPN9__gnu_cxx15_Hashtable_nodeIN4BEEV7ASTNodeEEEjS5_ET_S7_T0_RKT1_
00000000 l    d  .gnu.linkonce.t._ZSt24__uninitialized_fill_n_aIPPN9__gnu_cxx15_Hashtable_nodeIN4BEEV7ASTNodeEEEjS5_S5_EvT_T0_RKT1_SaIT2_E	00000000 .gnu.linkonce.t._ZSt24__uninitialized_fill_n_aIPPN9__gnu_cxx15_Hashtable_nodeIN4BEEV7ASTNodeEEEjS5_S5_EvT_T0_RKT1_SaIT2_E
00000000 l    d  .gnu.linkonce.t._ZSt6fill_nIPPN9__gnu_cxx15_Hashtable_nodeIPN4BEEV10ASTBVConstEEEjS6_ET_S8_T0_RKT1_	00000000 .gnu.linkonce.t._ZSt6fill_nIPPN9__gnu_cxx15_Hashtable_nodeIPN4BEEV10ASTBVConstEEEjS6_ET_S8_T0_RKT1_
00000000 l    d  .gnu.linkonce.t._ZSt24__uninitialized_fill_n_aIPPN9__gnu_cxx15_Hashtable_nodeIPN4BEEV10ASTBVConstEEEjS6_S6_EvT_T0_RKT1_SaIT2_E	00000000 .gnu.linkonce.t._ZSt24__uninitialized_fill_n_aIPPN9__gnu_cxx15_Hashtable_nodeIPN4BEEV10ASTBVConstEEEjS6_S6_EvT_T0_RKT1_SaIT2_E
00000000 l    d  .gnu.linkonce.t._ZSt6fill_nIPPN9__gnu_cxx15_Hashtable_nodeIPN4BEEV9ASTSymbolEEEjS6_ET_S8_T0_RKT1_	00000000 .gnu.linkonce.t._ZSt6fill_nIPPN9__gnu_cxx15_Hashtable_nodeIPN4BEEV9ASTSymbolEEEjS6_ET_S8_T0_RKT1_
00000000 l    d  .gnu.linkonce.t._ZSt24__uninitialized_fill_n_aIPPN9__gnu_cxx15_Hashtable_nodeIPN4BEEV9ASTSymbolEEEjS6_S6_EvT_T0_RKT1_SaIT2_E	00000000 .gnu.linkonce.t._ZSt24__uninitialized_fill_n_aIPPN9__gnu_cxx15_Hashtable_nodeIPN4BEEV9ASTSymbolEEEjS6_S6_EvT_T0_RKT1_SaIT2_E
00000080 l     F .text	00000010 __tcf_0
00000000 l    d  .gnu.linkonce.t._ZN4BEEV8exprlessENS_7ASTNodeES0_	00000000 .gnu.linkonce.t._ZN4BEEV8exprlessENS_7ASTNodeES0_
00000000 l    d  .gnu.linkonce.t._ZSt8_DestroyIN9__gnu_cxx17__normal_iteratorIPPSt6vectorIN4BEEV7ASTNodeESaIS4_EES2_IS7_SaIS7_EEEES9_EvT_SC_T0_	00000000 .gnu.linkonce.t._ZSt8_DestroyIN9__gnu_cxx17__normal_iteratorIPPSt6vectorIN4BEEV7ASTNodeESaIS4_EES2_IS7_SaIS7_EEEES9_EvT_SC_T0_
00000000 l    d  .rodata.str1.4	00000000 .rodata.str1.4
00000000 l    d  .gnu.linkonce.t._ZN4BEEV10ASTBVConst9nodeprintERSo	00000000 .gnu.linkonce.t._ZN4BEEV10ASTBVConst9nodeprintERSo
00000000 l    d  .gnu.linkonce.t._ZSt11lower_boundIPKmmET_S2_S2_RKT0_	00000000 .gnu.linkonce.t._ZSt11lower_boundIPKmmET_S2_S2_RKT0_
00000000 l    d  .gnu.linkonce.t._ZNSt6vectorIPN9__gnu_cxx15_Hashtable_nodeIN4BEEV7ASTNodeEEESaIS5_EED1Ev	00000000 .gnu.linkonce.t._ZNSt6vectorIPN9__gnu_cxx15_Hashtable_nodeIN4BEEV7ASTNodeEEESaIS5_EED1Ev
00000000 l    d  .gnu.linkonce.t._ZNSt6vectorIPN9__gnu_cxx15_Hashtable_nodeISt4pairIKN4BEEV7ASTNodeES4_EEESaIS8_EED1Ev	00000000 .gnu.linkonce.t._ZNSt6vectorIPN9__gnu_cxx15_Hashtable_nodeISt4pairIKN4BEEV7ASTNodeES4_EEESaIS8_EED1Ev
00000000 l    d  .gnu.linkonce.t._ZNSt6vectorIPN9__gnu_cxx15_Hashtable_nodeIPN4BEEV11ASTInteriorEEESaIS6_EED1Ev	00000000 .gnu.linkonce.t._ZNSt6vectorIPN9__gnu_cxx15_Hashtable_nodeIPN4BEEV11ASTInteriorEEESaIS6_EED1Ev
00000000 l    d  .gnu.linkonce.t._ZNSt6vectorIPN9__gnu_cxx15_Hashtable_nodeIPN4BEEV9ASTSymbolEEESaIS6_EED1Ev	00000000 .gnu.linkonce.t._ZNSt6vectorIPN9__gnu_cxx15_Hashtable_nodeIPN4BEEV9ASTSymbolEEESaIS6_EED1Ev
00000000 l    d  .gnu.linkonce.t._ZNSt6vectorIPS_IN4BEEV7ASTNodeESaIS1_EESaIS4_EED1Ev	00000000 .gnu.linkonce.t._ZNSt6vectorIPS_IN4BEEV7ASTNodeESaIS1_EESaIS4_EED1Ev
00000000 l    d  .gnu.linkonce.t._ZN9__gnu_cxx9hashtableIPN4BEEV10ASTBVConstES3_NS2_16ASTBVConstHasherESt9_IdentityIS3_ENS2_15ASTBVConstEqualESaIS3_EE5clearEv	00000000 .gnu.linkonce.t._ZN9__gnu_cxx9hashtableIPN4BEEV10ASTBVConstES3_NS2_16ASTBVConstHasherESt9_IdentityIS3_ENS2_15ASTBVConstEqualESaIS3_EE5clearEv
00000000 l    d  .gnu.linkonce.t._ZN9__gnu_cxx9hashtableIPN4BEEV9ASTSymbolES3_NS2_15ASTSymbolHasherESt9_IdentityIS3_ENS2_14ASTSymbolEqualESaIS3_EE5clearEv	00000000 .gnu.linkonce.t._ZN9__gnu_cxx9hashtableIPN4BEEV9ASTSymbolES3_NS2_15ASTSymbolHasherESt9_IdentityIS3_ENS2_14ASTSymbolEqualESaIS3_EE5clearEv
00000000 l    d  .gnu.linkonce.t._ZN9__gnu_cxx9hashtableIPN4BEEV11ASTInteriorES3_NS2_17ASTInteriorHasherESt9_IdentityIS3_ENS2_16ASTInteriorEqualESaIS3_EE5clearEv	00000000 .gnu.linkonce.t._ZN9__gnu_cxx9hashtableIPN4BEEV11ASTInteriorES3_NS2_17ASTInteriorHasherESt9_IdentityIS3_ENS2_16ASTInteriorEqualESaIS3_EE5clearEv
00000000 l    d  .gnu.linkonce.t._ZN9__gnu_cxx9hashtableISt4pairIKjbEjNS_4hashIjEESt10_Select1stIS3_ESt8equal_toIjESaIbEE5clearEv	00000000 .gnu.linkonce.t._ZN9__gnu_cxx9hashtableISt4pairIKjbEjNS_4hashIjEESt10_Select1stIS3_ESt8equal_toIjESaIbEE5clearEv
00000000 l    d  .gnu.linkonce.t._ZN9__gnu_cxx19_Hashtable_iteratorISt4pairIKN4BEEV7ASTNodeEPNS_8hash_mapIjbNS_4hashIjEESt8equal_toIjESaIbEEEES3_NS3_13ASTNodeHasherESt10_Select1stISD_ENS3_12ASTNodeEqualESaISC_EEppEv	00000000 .gnu.linkonce.t._ZN9__gnu_cxx19_Hashtable_iteratorISt4pairIKN4BEEV7ASTNodeEPNS_8hash_mapIjbNS_4hashIjEESt8equal_toIjESaIbEEEES3_NS3_13ASTNodeHasherESt10_Select1stISD_ENS3_12ASTNodeEqualESaISC_EEppEv
00000000 l    d  .gnu.linkonce.t._ZN9__gnu_cxx19_Hashtable_iteratorISt4pairIKN4BEEV7ASTNodeESt6vectorIS3_SaIS3_EEES3_NS3_13ASTNodeHasherESt10_Select1stIS8_ENS3_12ASTNodeEqualESaIS7_EEppEv	00000000 .gnu.linkonce.t._ZN9__gnu_cxx19_Hashtable_iteratorISt4pairIKN4BEEV7ASTNodeESt6vectorIS3_SaIS3_EEES3_NS3_13ASTNodeHasherESt10_Select1stIS8_ENS3_12ASTNodeEqualESaIS7_EEppEv
00000000 l    d  .gnu.linkonce.t._ZN9__gnu_cxx9hashtableIPN4BEEV9ASTSymbolES3_NS2_15ASTSymbolHasherESt9_IdentityIS3_ENS2_14ASTSymbolEqualESaIS3_EE22insert_unique_noresizeERKS3_	00000000 .gnu.linkonce.t._ZN9__gnu_cxx9hashtableIPN4BEEV9ASTSymbolES3_NS2_15ASTSymbolHasherESt9_IdentityIS3_ENS2_14ASTSymbolEqualESaIS3_EE22insert_unique_noresizeERKS3_
00000000 l    d  .gnu.linkonce.t._ZN9__gnu_cxx25_Hashtable_const_iteratorISt4pairIKN4BEEV7ASTNodeES3_ES3_NS3_13ASTNodeHasherESt10_Select1stIS5_ENS3_12ASTNodeEqualESaIS3_EEppEv	00000000 .gnu.linkonce.t._ZN9__gnu_cxx25_Hashtable_const_iteratorISt4pairIKN4BEEV7ASTNodeES3_ES3_NS3_13ASTNodeHasherESt10_Select1stIS5_ENS3_12ASTNodeEqualESaIS3_EEppEv
00000000 l    d  .gnu.linkonce.t._ZN9__gnu_cxx19_Hashtable_iteratorISt4pairIKN4BEEV7ASTNodeES3_ES3_NS3_13ASTNodeHasherESt10_Select1stIS5_ENS3_12ASTNodeEqualESaIS3_EEppEv	00000000 .gnu.linkonce.t._ZN9__gnu_cxx19_Hashtable_iteratorISt4pairIKN4BEEV7ASTNodeES3_ES3_NS3_13ASTNodeHasherESt10_Select1stIS5_ENS3_12ASTNodeEqualESaIS3_EEppEv
00000270 l     F .text	000000a2 _Z41__static_initialization_and_destruction_0ii
00005f90 l     F .text	00000059 __tcf_1
00000000 l    d  .gnu.linkonce.t._ZN9__gnu_cxx9hashtableIPN4BEEV10ASTBVConstES3_NS2_16ASTBVConstHasherESt9_IdentityIS3_ENS2_15ASTBVConstEqualESaIS3_EE22insert_unique_noresizeERKS3_	00000000 .gnu.linkonce.t._ZN9__gnu_cxx9hashtableIPN4BEEV10ASTBVConstES3_NS2_16ASTBVConstHasherESt9_IdentityIS3_ENS2_15ASTBVConstEqualESaIS3_EE22insert_unique_noresizeERKS3_
00000000 l    d  .gnu.linkonce.t._ZNSt6vectorIPS_IN4BEEV7ASTNodeESaIS1_EESaIS4_EE13_M_insert_auxEN9__gnu_cxx17__normal_iteratorIPS4_S6_EERKS4_	00000000 .gnu.linkonce.t._ZNSt6vectorIPS_IN4BEEV7ASTNodeESaIS1_EESaIS4_EE13_M_insert_auxEN9__gnu_cxx17__normal_iteratorIPS4_S6_EERKS4_
00000000 l    d  .gnu.linkonce.t._ZNSt6vectorIPS_IN4BEEV7ASTNodeESaIS1_EESaIS4_EE5eraseEN9__gnu_cxx17__normal_iteratorIPS4_S6_EESA_	00000000 .gnu.linkonce.t._ZNSt6vectorIPS_IN4BEEV7ASTNodeESaIS1_EESaIS4_EE5eraseEN9__gnu_cxx17__normal_iteratorIPS4_S6_EESA_
00000000 l    d  .gnu.linkonce.t._ZN9__gnu_cxx9hashtableIPN4BEEV9ASTSymbolES3_NS2_15ASTSymbolHasherESt9_IdentityIS3_ENS2_14ASTSymbolEqualESaIS3_EE6resizeEj	00000000 .gnu.linkonce.t._ZN9__gnu_cxx9hashtableIPN4BEEV9ASTSymbolES3_NS2_15ASTSymbolHasherESt9_IdentityIS3_ENS2_14ASTSymbolEqualESaIS3_EE6resizeEj
00000000 l    d  .gcc_except_table	00000000 .gcc_except_table
00000000 l    d  .gnu.linkonce.t._ZN9__gnu_cxx9hashtableIPN4BEEV9ASTSymbolES3_NS2_15ASTSymbolHasherESt9_IdentityIS3_ENS2_14ASTSymbolEqualESaIS3_EE5eraseERKS3_	00000000 .gnu.linkonce.t._ZN9__gnu_cxx9hashtableIPN4BEEV9ASTSymbolES3_NS2_15ASTSymbolHasherESt9_IdentityIS3_ENS2_14ASTSymbolEqualESaIS3_EE5eraseERKS3_
00000000 l    d  .gnu.linkonce.t._ZN9__gnu_cxx9hashtableIPN4BEEV11ASTInteriorES3_NS2_17ASTInteriorHasherESt9_IdentityIS3_ENS2_16ASTInteriorEqualESaIS3_EE6resizeEj	00000000 .gnu.linkonce.t._ZN9__gnu_cxx9hashtableIPN4BEEV11ASTInteriorES3_NS2_17ASTInteriorHasherESt9_IdentityIS3_ENS2_16ASTInteriorEqualESaIS3_EE6resizeEj
00000000 l    d  .gnu.linkonce.t._ZN9__gnu_cxx9hashtableIPN4BEEV10ASTBVConstES3_NS2_16ASTBVConstHasherESt9_IdentityIS3_ENS2_15ASTBVConstEqualESaIS3_EE6resizeEj	00000000 .gnu.linkonce.t._ZN9__gnu_cxx9hashtableIPN4BEEV10ASTBVConstES3_NS2_16ASTBVConstHasherESt9_IdentityIS3_ENS2_15ASTBVConstEqualESaIS3_EE6resizeEj
00000000 l    d  .gnu.linkonce.t._ZN9__gnu_cxx9hashtableIPN4BEEV10ASTBVConstES3_NS2_16ASTBVConstHasherESt9_IdentityIS3_ENS2_15ASTBVConstEqualESaIS3_EE5eraseERKS3_	00000000 .gnu.linkonce.t._ZN9__gnu_cxx9hashtableIPN4BEEV10ASTBVConstES3_NS2_16ASTBVConstHasherESt9_IdentityIS3_ENS2_15ASTBVConstEqualESaIS3_EE5eraseERKS3_
00000000 l    d  .gnu.linkonce.t._ZSt8_DestroyIN9__gnu_cxx17__normal_iteratorIPSt4pairIN4BEEV7ASTNodeES4_ESt6vectorIS5_SaIS5_EEEES8_EvT_SB_T0_	00000000 .gnu.linkonce.t._ZSt8_DestroyIN9__gnu_cxx17__normal_iteratorIPSt4pairIN4BEEV7ASTNodeES4_ESt6vectorIS5_SaIS5_EEEES8_EvT_SB_T0_
00000000 l    d  .gnu.linkonce.t._ZNSt6vectorISt4pairIN4BEEV7ASTNodeES2_ESaIS3_EE5eraseEN9__gnu_cxx17__normal_iteratorIPS3_S5_EES9_	00000000 .gnu.linkonce.t._ZNSt6vectorISt4pairIN4BEEV7ASTNodeES2_ESaIS3_EE5eraseEN9__gnu_cxx17__normal_iteratorIPS3_S5_EES9_
00000000 l    d  .gnu.linkonce.t._ZNSt6vectorISt4pairIN4BEEV7ASTNodeES2_ESaIS3_EE13_M_insert_auxEN9__gnu_cxx17__normal_iteratorIPS3_S5_EERKS3_	00000000 .gnu.linkonce.t._ZNSt6vectorISt4pairIN4BEEV7ASTNodeES2_ESaIS3_EE13_M_insert_auxEN9__gnu_cxx17__normal_iteratorIPS3_S5_EERKS3_
00000000 l    d  .gnu.linkonce.t._ZN9__gnu_cxx9hashtableISt4pairIKN4BEEV7ASTNodeES3_ES3_NS3_13ASTNodeHasherESt10_Select1stIS5_ENS3_12ASTNodeEqualESaIS3_EE6resizeEj	00000000 .gnu.linkonce.t._ZN9__gnu_cxx9hashtableISt4pairIKN4BEEV7ASTNodeES3_ES3_NS3_13ASTNodeHasherESt10_Select1stIS5_ENS3_12ASTNodeEqualESaIS3_EE6resizeEj
00000000 l    d  .gnu.linkonce.t._ZN9__gnu_cxx9hashtableISt4pairIKN4BEEV7ASTNodeES3_ES3_NS3_13ASTNodeHasherESt10_Select1stIS5_ENS3_12ASTNodeEqualESaIS3_EE14find_or_insertERKS5_	00000000 .gnu.linkonce.t._ZN9__gnu_cxx9hashtableISt4pairIKN4BEEV7ASTNodeES3_ES3_NS3_13ASTNodeHasherESt10_Select1stIS5_ENS3_12ASTNodeEqualESaIS3_EE14find_or_insertERKS5_
00000000 l    d  .gnu.linkonce.t._ZN9__gnu_cxx9hashtableIPN4BEEV11ASTInteriorES3_NS2_17ASTInteriorHasherESt9_IdentityIS3_ENS2_16ASTInteriorEqualESaIS3_EE22insert_unique_noresizeERKS3_	00000000 .gnu.linkonce.t._ZN9__gnu_cxx9hashtableIPN4BEEV11ASTInteriorES3_NS2_17ASTInteriorHasherESt9_IdentityIS3_ENS2_16ASTInteriorEqualESaIS3_EE22insert_unique_noresizeERKS3_
00000000 l    d  .gnu.linkonce.t._ZSt8_DestroyIN9__gnu_cxx17__normal_iteratorIPN4BEEV7ASTNodeESt6vectorIS3_SaIS3_EEEES6_EvT_S9_T0_	00000000 .gnu.linkonce.t._ZSt8_DestroyIN9__gnu_cxx17__normal_iteratorIPN4BEEV7ASTNodeESt6vectorIS3_SaIS3_EEEES6_EvT_S9_T0_
00000000 l    d  .gnu.linkonce.t._ZN9__gnu_cxx9hashtableIPN4BEEV11ASTInteriorES3_NS2_17ASTInteriorHasherESt9_IdentityIS3_ENS2_16ASTInteriorEqualESaIS3_EE5eraseERKS3_	00000000 .gnu.linkonce.t._ZN9__gnu_cxx9hashtableIPN4BEEV11ASTInteriorES3_NS2_17ASTInteriorHasherESt9_IdentityIS3_ENS2_16ASTInteriorEqualESaIS3_EE5eraseERKS3_
00000000 l    d  .gnu.linkonce.t._ZN9__gnu_cxx9hashtableISt4pairIKN4BEEV7ASTNodeES3_ES3_NS3_13ASTNodeHasherESt10_Select1stIS5_ENS3_12ASTNodeEqualESaIS3_EE22insert_unique_noresizeERKS5_	00000000 .gnu.linkonce.t._ZN9__gnu_cxx9hashtableISt4pairIKN4BEEV7ASTNodeES3_ES3_NS3_13ASTNodeHasherESt10_Select1stIS5_ENS3_12ASTNodeEqualESaIS3_EE22insert_unique_noresizeERKS5_
00000000 l    d  .gnu.linkonce.t._ZN4BEEV9arithlessENS_7ASTNodeES0_	00000000 .gnu.linkonce.t._ZN4BEEV9arithlessENS_7ASTNodeES0_
00000000 l    d  .gnu.linkonce.t._ZSt25__unguarded_linear_insertIN9__gnu_cxx17__normal_iteratorIPN4BEEV7ASTNodeESt6vectorIS3_SaIS3_EEEES3_PFbS3_S3_EEvT_T0_T1_	00000000 .gnu.linkonce.t._ZSt25__unguarded_linear_insertIN9__gnu_cxx17__normal_iteratorIPN4BEEV7ASTNodeESt6vectorIS3_SaIS3_EEEES3_PFbS3_S3_EEvT_T0_T1_
00000000 l    d  .gnu.linkonce.t._ZSt16__insertion_sortIN9__gnu_cxx17__normal_iteratorIPN4BEEV7ASTNodeESt6vectorIS3_SaIS3_EEEEPFbS3_S3_EEvT_SB_T0_	00000000 .gnu.linkonce.t._ZSt16__insertion_sortIN9__gnu_cxx17__normal_iteratorIPN4BEEV7ASTNodeESt6vectorIS3_SaIS3_EEEEPFbS3_S3_EEvT_SB_T0_
00000000 l    d  .gnu.linkonce.t._ZSt22__final_insertion_sortIN9__gnu_cxx17__normal_iteratorIPN4BEEV7ASTNodeESt6vectorIS3_SaIS3_EEEEPFbS3_S3_EEvT_SB_T0_	00000000 .gnu.linkonce.t._ZSt22__final_insertion_sortIN9__gnu_cxx17__normal_iteratorIPN4BEEV7ASTNodeESt6vectorIS3_SaIS3_EEEEPFbS3_S3_EEvT_SB_T0_
00000000 l    d  .gnu.linkonce.t._ZSt21__unguarded_partitionIN9__gnu_cxx17__normal_iteratorIPN4BEEV7ASTNodeESt6vectorIS3_SaIS3_EEEES3_PFbS3_S3_EET_SB_SB_T0_T1_	00000000 .gnu.linkonce.t._ZSt21__unguarded_partitionIN9__gnu_cxx17__normal_iteratorIPN4BEEV7ASTNodeESt6vectorIS3_SaIS3_EEEES3_PFbS3_S3_EET_SB_SB_T0_T1_
00000000 l    d  .gnu.linkonce.t._ZSt11__push_heapIN9__gnu_cxx17__normal_iteratorIPN4BEEV7ASTNodeESt6vectorIS3_SaIS3_EEEEiS3_PFbS3_S3_EEvT_T0_SC_T1_T2_	00000000 .gnu.linkonce.t._ZSt11__push_heapIN9__gnu_cxx17__normal_iteratorIPN4BEEV7ASTNodeESt6vectorIS3_SaIS3_EEEEiS3_PFbS3_S3_EEvT_T0_SC_T1_T2_
00000000 l    d  .gnu.linkonce.t._ZSt13__adjust_heapIN9__gnu_cxx17__normal_iteratorIPN4BEEV7ASTNodeESt6vectorIS3_SaIS3_EEEEiS3_PFbS3_S3_EEvT_T0_SC_T1_T2_	00000000 .gnu.linkonce.t._ZSt13__adjust_heapIN9__gnu_cxx17__normal_iteratorIPN4BEEV7ASTNodeESt6vectorIS3_SaIS3_EEEEiS3_PFbS3_S3_EEvT_T0_SC_T1_T2_
00000000 l    d  .gnu.linkonce.t._ZSt9sort_heapIN9__gnu_cxx17__normal_iteratorIPN4BEEV7ASTNodeESt6vectorIS3_SaIS3_EEEEPFbS3_S3_EEvT_SB_T0_	00000000 .gnu.linkonce.t._ZSt9sort_heapIN9__gnu_cxx17__normal_iteratorIPN4BEEV7ASTNodeESt6vectorIS3_SaIS3_EEEEPFbS3_S3_EEvT_SB_T0_
00000000 l    d  .gnu.linkonce.t._ZSt12partial_sortIN9__gnu_cxx17__normal_iteratorIPN4BEEV7ASTNodeESt6vectorIS3_SaIS3_EEEEPFbS3_S3_EEvT_SB_SB_T0_	00000000 .gnu.linkonce.t._ZSt12partial_sortIN9__gnu_cxx17__normal_iteratorIPN4BEEV7ASTNodeESt6vectorIS3_SaIS3_EEEEPFbS3_S3_EEvT_SB_SB_T0_
00000000 l    d  .gnu.linkonce.t._ZSt16__introsort_loopIN9__gnu_cxx17__normal_iteratorIPN4BEEV7ASTNodeESt6vectorIS3_SaIS3_EEEEiPFbS3_S3_EEvT_SB_T0_T1_	00000000 .gnu.linkonce.t._ZSt16__introsort_loopIN9__gnu_cxx17__normal_iteratorIPN4BEEV7ASTNodeESt6vectorIS3_SaIS3_EEEEiPFbS3_S3_EEvT_SB_T0_T1_
00000000 l    d  .gnu.linkonce.t._ZN9__gnu_cxx9hashtableISt4pairIKN4BEEV7ASTNodeES3_ES3_NS3_13ASTNodeHasherESt10_Select1stIS5_ENS3_12ASTNodeEqualESaIS3_EE5clearEv	00000000 .gnu.linkonce.t._ZN9__gnu_cxx9hashtableISt4pairIKN4BEEV7ASTNodeES3_ES3_NS3_13ASTNodeHasherESt10_Select1stIS5_ENS3_12ASTNodeEqualESaIS3_EE5clearEv
00000000 l    d  .gnu.linkonce.t._ZSt8_DestroyIPSt4pairIN4BEEV7ASTNodeES2_ESaIS3_EEvT_S6_T0_	00000000 .gnu.linkonce.t._ZSt8_DestroyIPSt4pairIN4BEEV7ASTNodeES2_ESaIS3_EEvT_S6_T0_
00000000 l    d  .gnu.linkonce.t._ZNSt6vectorISt4pairIN4BEEV7ASTNodeES2_ESaIS3_EED1Ev	00000000 .gnu.linkonce.t._ZNSt6vectorISt4pairIN4BEEV7ASTNodeES2_ESaIS3_EED1Ev
00000000 l    d  .gnu.linkonce.t._ZN9__gnu_cxx9hashtableISt4pairIKN4BEEV7ASTNodeEiES3_NS3_13ASTNodeHasherESt10_Select1stIS5_ENS3_12ASTNodeEqualESaIiEE5clearEv	00000000 .gnu.linkonce.t._ZN9__gnu_cxx9hashtableISt4pairIKN4BEEV7ASTNodeEiES3_NS3_13ASTNodeHasherESt10_Select1stIS5_ENS3_12ASTNodeEqualESaIiEE5clearEv
00000000 l    d  .gnu.linkonce.t._ZN9__gnu_cxx9hashtableISt4pairIKN4BEEV7ASTNodeEPNS_8hash_mapIjbNS_4hashIjEESt8equal_toIjESaIbEEEES3_NS3_13ASTNodeHasherESt10_Select1stISD_ENS3_12ASTNodeEqualESaISC_EE5clearEv	00000000 .gnu.linkonce.t._ZN9__gnu_cxx9hashtableISt4pairIKN4BEEV7ASTNodeEPNS_8hash_mapIjbNS_4hashIjEESt8equal_toIjESaIbEEEES3_NS3_13ASTNodeHasherESt10_Select1stISD_ENS3_12ASTNodeEqualESaISC_EE5clearEv
00000000 l    d  .gnu.linkonce.t._ZSt8_DestroyIPN4BEEV7ASTNodeESaIS1_EEvT_S4_T0_	00000000 .gnu.linkonce.t._ZSt8_DestroyIPN4BEEV7ASTNodeESaIS1_EEvT_S4_T0_
00000000 l    d  .gnu.linkonce.t._ZNSs12_S_constructIPcEES0_T_S1_RKSaIcESt20forward_iterator_tag	00000000 .gnu.linkonce.t._ZNSs12_S_constructIPcEES0_T_S1_RKSaIcESt20forward_iterator_tag
00000000 l    d  .gnu.linkonce.t._ZNSsC1IPcEET_S1_RKSaIcE	00000000 .gnu.linkonce.t._ZNSsC1IPcEET_S1_RKSaIcE
00000000 l    d  .gnu.linkonce.t._ZN9__gnu_cxx9hashtableIN4BEEV7ASTNodeES2_NS2_13ASTNodeHasherESt9_IdentityIS2_ENS2_12ASTNodeEqualESaIS2_EE6resizeEj	00000000 .gnu.linkonce.t._ZN9__gnu_cxx9hashtableIN4BEEV7ASTNodeES2_NS2_13ASTNodeHasherESt9_IdentityIS2_ENS2_12ASTNodeEqualESaIS2_EE6resizeEj
00000000 l    d  .gnu.linkonce.t._ZNSt6vectorIN4BEEV7ASTNodeESaIS1_EE15_M_range_insertIN9__gnu_cxx17__normal_iteratorIPKS1_S3_EEEEvNS6_IPS1_S3_EET_SC_St20forward_iterator_tag	00000000 .gnu.linkonce.t._ZNSt6vectorIN4BEEV7ASTNodeESaIS1_EE15_M_range_insertIN9__gnu_cxx17__normal_iteratorIPKS1_S3_EEEEvNS6_IPS1_S3_EET_SC_St20forward_iterator_tag
00000000 l    d  .gnu.linkonce.t._ZNSt6vectorIN4BEEV7ASTNodeESaIS1_EE13_M_insert_auxEN9__gnu_cxx17__normal_iteratorIPS1_S3_EERKS1_	00000000 .gnu.linkonce.t._ZNSt6vectorIN4BEEV7ASTNodeESaIS1_EE13_M_insert_auxEN9__gnu_cxx17__normal_iteratorIPS1_S3_EERKS1_
00000000 l    d  .gnu.linkonce.t._ZNSt6vectorIN4BEEV7ASTNodeESaIS1_EE15_M_range_insertIN9__gnu_cxx17__normal_iteratorIPS1_S3_EEEEvS8_T_S9_St20forward_iterator_tag	00000000 .gnu.linkonce.t._ZNSt6vectorIN4BEEV7ASTNodeESaIS1_EE15_M_range_insertIN9__gnu_cxx17__normal_iteratorIPS1_S3_EEEEvS8_T_S9_St20forward_iterator_tag
00000000 l    d  .gnu.linkonce.t._ZNSt6vectorIN4BEEV7ASTNodeESaIS1_EEC1ERKS3_	00000000 .gnu.linkonce.t._ZNSt6vectorIN4BEEV7ASTNodeESaIS1_EEC1ERKS3_
00000000 l    d  .gnu.linkonce.t._ZN9__gnu_cxx9hashtableIN4BEEV7ASTNodeES2_NS2_13ASTNodeHasherESt9_IdentityIS2_ENS2_12ASTNodeEqualESaIS2_EE22insert_unique_noresizeERKS2_	00000000 .gnu.linkonce.t._ZN9__gnu_cxx9hashtableIN4BEEV7ASTNodeES2_NS2_13ASTNodeHasherESt9_IdentityIS2_ENS2_12ASTNodeEqualESaIS2_EE22insert_unique_noresizeERKS2_
00000000 l    d  .gnu.linkonce.t._ZNSt6vectorIN4BEEV7ASTNodeESaIS1_EE5eraseEN9__gnu_cxx17__normal_iteratorIPS1_S3_EES7_	00000000 .gnu.linkonce.t._ZNSt6vectorIN4BEEV7ASTNodeESaIS1_EE5eraseEN9__gnu_cxx17__normal_iteratorIPS1_S3_EES7_
00000000 l    d  .gnu.linkonce.t._ZN9__gnu_cxx9hashtableIN4BEEV7ASTNodeES2_NS2_13ASTNodeHasherESt9_IdentityIS2_ENS2_12ASTNodeEqualESaIS2_EE5clearEv	00000000 .gnu.linkonce.t._ZN9__gnu_cxx9hashtableIN4BEEV7ASTNodeES2_NS2_13ASTNodeHasherESt9_IdentityIS2_ENS2_12ASTNodeEqualESaIS2_EE5clearEv
00000000 l    d  .gnu.linkonce.t._ZNSt6vectorIN4BEEV7ASTNodeESaIS1_EED1Ev	00000000 .gnu.linkonce.t._ZNSt6vectorIN4BEEV7ASTNodeESaIS1_EED1Ev
00000000 l    d  .gnu.linkonce.t._ZStplIcSt11char_traitsIcESaIcEESbIT_T0_T1_EPKS3_RKS6_	00000000 .gnu.linkonce.t._ZStplIcSt11char_traitsIcESaIcEESbIT_T0_T1_EPKS3_RKS6_
00000000 l    d  .gnu.linkonce.t._ZN4BEEV10ASTBVConstD0Ev	00000000 .gnu.linkonce.t._ZN4BEEV10ASTBVConstD0Ev
00000000 l    d  .gnu.linkonce.t._ZN4BEEV10ASTBVConstD1Ev	00000000 .gnu.linkonce.t._ZN4BEEV10ASTBVConstD1Ev
00000000 l    d  .gnu.linkonce.t._ZN9__gnu_cxx9hashtableISt4pairIKN4BEEV7ASTNodeESt6vectorIS3_SaIS3_EEES3_NS3_13ASTNodeHasherESt10_Select1stIS8_ENS3_12ASTNodeEqualESaIS7_EE5clearEv	00000000 .gnu.linkonce.t._ZN9__gnu_cxx9hashtableISt4pairIKN4BEEV7ASTNodeESt6vectorIS3_SaIS3_EEES3_NS3_13ASTNodeHasherESt10_Select1stIS8_ENS3_12ASTNodeEqualESaIS7_EE5clearEv
00000000 l    d  .eh_frame	00000000 .eh_frame
00000000 l    d  .note.GNU-stack	00000000 .note.GNU-stack
00000000 l    d  .comment	00000000 .comment
00000000 l    d  .group	00000000 .group
00000000 l    d  .group	00000000 .group
00000000 l    d  .group	00000000 .group
00000000 l    d  .group	00000000 .group
00000000 l    d  .group	00000000 .group
00000000 l    d  .group	00000000 .group
00000000 l    d  .group	00000000 .group
00000000 l    d  .group	00000000 .group
00000000 l    d  .group	00000000 .group
00000000 l    d  .group	00000000 .group
00000000 l    d  .group	00000000 .group
00000000 l    d  .group	00000000 .group
00000000 l    d  .group	00000000 .group
00000000 l    d  .group	00000000 .group
00000000 l    d  .group	00000000 .group
00000000 l    d  .group	00000000 .group
00000000 l    d  .group	00000000 .group
00000000 l    d  .group	00000000 .group
00000000 l    d  .group	00000000 .group
00000000 l    d  .group	00000000 .group
00000000 l    d  .group	00000000 .group
00000000 l    d  .group	00000000 .group
00000000 l    d  .group	00000000 .group
00000000 l    d  .group	00000000 .group
00000000 l    d  .group	00000000 .group
00000000 l    d  .group	00000000 .group
00000000 l    d  .group	00000000 .group
00000000 l    d  .group	00000000 .group
00000000 l    d  .group	00000000 .group
00000000 l    d  .group	00000000 .group
00000000 l    d  .group	00000000 .group
00000000 l    d  .group	00000000 .group
00000000 l    d  .group	00000000 .group
00000000 l    d  .group	00000000 .group
00000000 l    d  .group	00000000 .group
00000000 l    d  .group	00000000 .group
00000000 l    d  .group	00000000 .group
00000000 l    d  .group	00000000 .group
00000000 l    d  .group	00000000 .group
00000000 l    d  .group	00000000 .group
00000000 l    d  .group	00000000 .group
00000000 l    d  .group	00000000 .group
00000000 l    d  .group	00000000 .group
00000000 l    d  .group	00000000 .group
00000000 l    d  .group	00000000 .group
00000000 l    d  .group	00000000 .group
00000000 l    d  .group	00000000 .group
00000000 l    d  .group	00000000 .group
00000000 l    d  .group	00000000 .group
00000000 l    d  .group	00000000 .group
00000000 l    d  .group	00000000 .group
00000000 l    d  .group	00000000 .group
00000000 l    d  .group	00000000 .group
00000000 l    d  .group	00000000 .group
00000000 l    d  .group	00000000 .group
00000000 l    d  .group	00000000 .group
00000000 l    d  .group	00000000 .group
00000000 l    d  .group	00000000 .group
00000000 l    d  .group	00000000 .group
00000000 l    d  .group	00000000 .group
00000000 l    d  .group	00000000 .group
00000000 l    d  .group	00000000 .group
00000000 l    d  .group	00000000 .group
00000000 l    d  .group	00000000 .group
00000000 l    d  .group	00000000 .group
00000000 l    d  .group	00000000 .group
00000000 l    d  .group	00000000 .group
00000000 l    d  .group	00000000 .group
00000000 l    d  .group	00000000 .group
00000000 l    d  .group	00000000 .group
00000000 l    d  .group	00000000 .group
00000000 l    d  .group	00000000 .group
00000000 l    d  .group	00000000 .group
00000000 l    d  .group	00000000 .group
00000000 l    d  .group	00000000 .group
00000000 l    d  .group	00000000 .group
00000000 l    d  .group	00000000 .group
00000000 l    d  .group	00000000 .group
00000000 l    d  .group	00000000 .group
00000000 l    d  .group	00000000 .group
00000000 l    d  .group	00000000 .group
00000000 l    d  .group	00000000 .group
00000000 l    d  .group	00000000 .group
00000000 l    d  .group	00000000 .group
00000000 l    d  .group	00000000 .group
00000000 l    d  .group	00000000 .group
00000000 l    d  .group	00000000 .group
00000000 l    d  .group	00000000 .group
00000000 l    d  .group	00000000 .group
00000000 l    d  .group	00000000 .group
00000000 l    d  .group	00000000 .group
00000000 l    d  .group	00000000 .group
00000000 l    d  .group	00000000 .group
00000000 l    d  .group	00000000 .group
00000000 l    d  .group	00000000 .group
00000000 l    d  .group	00000000 .group
00000000 l    d  .group	00000000 .group
00000000 l    d  .group	00000000 .group
00000000 l    d  .group	00000000 .group
00000000 l    d  .group	00000000 .group
00000000 l    d  .group	00000000 .group
00000000 l    d  .group	00000000 .group
00000000 l    d  .group	00000000 .group
00000000  w    O .gnu.linkonce.r._ZTIN4BEEV11ASTInternalE	00000008 _ZTIN4BEEV11ASTInternalE
00000000         *UND*	00000000 _ZTVN10__cxxabiv117__class_type_infoE
00000000  w    O .gnu.linkonce.r._ZTSN4BEEV11ASTInternalE	00000015 _ZTSN4BEEV11ASTInternalE
00000000  w    O .gnu.linkonce.r._ZTIN4BEEV11ASTInteriorE	0000000c _ZTIN4BEEV11ASTInteriorE
00000000         *UND*	00000000 _ZTVN10__cxxabiv120__si_class_type_infoE
00000000  w    O .gnu.linkonce.r._ZTSN4BEEV11ASTInteriorE	00000015 _ZTSN4BEEV11ASTInteriorE
00000000  w    O .gnu.linkonce.r._ZTIN4BEEV9ASTSymbolE	0000000c _ZTIN4BEEV9ASTSymbolE
00000000  w    O .gnu.linkonce.r._ZTSN4BEEV9ASTSymbolE	00000012 _ZTSN4BEEV9ASTSymbolE
00000000  w    O .gnu.linkonce.r._ZTIN4BEEV10ASTBVConstE	0000000c _ZTIN4BEEV10ASTBVConstE
00000000  w    O .gnu.linkonce.r._ZTSN4BEEV10ASTBVConstE	00000014 _ZTSN4BEEV10ASTBVConstE
00000000  w    O .gnu.linkonce.r._ZTVN4BEEV11ASTInternalE	00000020 _ZTVN4BEEV11ASTInternalE
00000000  w    F .gnu.linkonce.t._ZNK4BEEV11ASTInternal7GetKindEv	0000000b _ZNK4BEEV11ASTInternal7GetKindEv
00000000  w    F .gnu.linkonce.t._ZNK4BEEV11ASTInternal11GetChildrenEv	0000000b _ZNK4BEEV11ASTInternal11GetChildrenEv
00000000         *UND*	00000000 __cxa_pure_virtual
000024e0 g     F .text	0000005f _ZN4BEEV11ASTInternalD1Ev
00002540 g     F .text	0000006b _ZN4BEEV11ASTInternalD0Ev
00000000  w    F .gnu.linkonce.t._ZN4BEEV11ASTInternal9nodeprintERSo	00000016 _ZN4BEEV11ASTInternal9nodeprintERSo
00000000  w    O .gnu.linkonce.r._ZTVN4BEEV11ASTInteriorE	00000020 _ZTVN4BEEV11ASTInteriorE
00000610 g     F .text	0000002a _ZN4BEEV11ASTInterior7CleanUpEv
000022a0 g     F .text	00000012 _ZN4BEEV11ASTInteriorD1Ev
00002270 g     F .text	00000025 _ZN4BEEV11ASTInteriorD0Ev
00000000  w    F .gnu.linkonce.t._ZN4BEEV11ASTInterior9nodeprintERSo	0000001f _ZN4BEEV11ASTInterior9nodeprintERSo
00000000  w    O .gnu.linkonce.r._ZTVN4BEEV10ASTBVConstE	00000020 _ZTVN4BEEV10ASTBVConstE
00000380 g     F .text	0000002d _ZN4BEEV10ASTBVConst7CleanUpEv
00000000  w    F .gnu.linkonce.t._ZN4BEEV10ASTBVConstD1Ev	0000003f _ZN4BEEV10ASTBVConstD1Ev
00000000  w    F .gnu.linkonce.t._ZN4BEEV10ASTBVConstD0Ev	00000047 _ZN4BEEV10ASTBVConstD0Ev
00000000  w    F .gnu.linkonce.t._ZN4BEEV10ASTBVConst9nodeprintERSo	000000c3 _ZN4BEEV10ASTBVConst9nodeprintERSo
00000000  w    O .gnu.linkonce.r._ZTVN4BEEV9ASTSymbolE	00000020 _ZTVN4BEEV9ASTSymbolE
00000340 g     F .text	00000037 _ZN4BEEV9ASTSymbol7CleanUpEv
00002120 g     F .text	00000012 _ZN4BEEV9ASTSymbolD1Ev
000020f0 g     F .text	00000025 _ZN4BEEV9ASTSymbolD0Ev
00000000  w    F .gnu.linkonce.t._ZN4BEEV9ASTSymbol9nodeprintERSo	00000018 _ZN4BEEV9ASTSymbol9nodeprintERSo
00000000 g     O .bss	0000000c _ZN4BEEV13_empty_ASTVecE
0000000c g     O .bss	00000004 _ZN4BEEV13vc_error_hdlrE
00000010 g     O .bss	00000004 _ZN4BEEV24globalBeevMgr_for_parserE
00000014 g     O .bss	00000001 _ZN4BEEV19print_STPinput_backE
00000015 g     O .bss	00000001 _ZN4BEEV20smtlib_parser_enableE
00000016 g     O .bss	00000001 _ZN4BEEV11xor_flattenE
00000000 g     O .data	00000001 _ZN4BEEV15wordlevel_solveE
00000017 g     O .bss	00000001 _ZN4BEEV18print_sat_varorderE
00000018 g     O .bss	00000001 _ZN4BEEV13linear_searchE
00000019 g     O .bss	00000001 _ZN4BEEV12print_outputE
0000001a g     O .bss	00000001 _ZN4BEEV28print_arrayval_declaredorderE
0000001b g     O .bss	00000001 _ZN4BEEV20print_counterexampleE
00000001 g     O .data	00000001 _ZN4BEEV24construct_counterexampleE
0000001c g     O .bss	00000001 _ZN4BEEV20check_counterexampleE
00000002 g     O .data	00000001 _ZN4BEEV21arraywrite_refinementE
00000003 g     O .data	00000001 _ZN4BEEV20arrayread_refinementE
00000004 g     O .data	00000001 _ZN4BEEV8optimizeE
0000001d g     O .bss	00000001 _ZN4BEEV26variable_activity_optimizeE
0000001e g     O .bss	00000001 _ZN4BEEV11print_nodesE
0000001f g     O .bss	00000001 _ZN4BEEV5statsE
00000000         *UND*	00000000 _ZStlsISt11char_traitsIcEERSt13basic_ostreamIcT_ES5_PKc
00000000         *UND*	00000000 _ZN4BEEV11_kind_namesE
00000000  w    F .gnu.linkonce.t._ZN4BEEV7ASTNodeD1Ev	0000002b _ZN4BEEV7ASTNodeD1Ev
00000000 g     F .text	00000080 _ZN4BEEV8isAtomicENS_4KindE
00000000  w    F .gnu.linkonce.t._ZSt8_DestroyIPPSt6vectorIN4BEEV7ASTNodeESaIS2_EESaIS5_EEvT_S8_T0_	00000019 _ZSt8_DestroyIPPSt6vectorIN4BEEV7ASTNodeESaIS2_EESaIS5_EEvT_S8_T0_
00000000  w    F .gnu.linkonce.t._ZSt8_DestroyIPPN9__gnu_cxx15_Hashtable_nodeISt4pairIKN4BEEV7ASTNodeES4_EEESaIS8_EEvT_SB_T0_	00000019 _ZSt8_DestroyIPPN9__gnu_cxx15_Hashtable_nodeISt4pairIKN4BEEV7ASTNodeES4_EEESaIS8_EEvT_SB_T0_
00000000  w    F .gnu.linkonce.t._ZSt8_DestroyIPPN9__gnu_cxx15_Hashtable_nodeIPN4BEEV11ASTInteriorEEESaIS6_EEvT_S9_T0_	00000019 _ZSt8_DestroyIPPN9__gnu_cxx15_Hashtable_nodeIPN4BEEV11ASTInteriorEEESaIS6_EEvT_S9_T0_
00000000  w    F .gnu.linkonce.t._ZSt8_DestroyIPPN9__gnu_cxx15_Hashtable_nodeIPN4BEEV9ASTSymbolEEESaIS6_EEvT_S9_T0_	00000019 _ZSt8_DestroyIPPN9__gnu_cxx15_Hashtable_nodeIPN4BEEV9ASTSymbolEEESaIS6_EEvT_S9_T0_
00000000  w    F .gnu.linkonce.t._ZSt8_DestroyIPPN9__gnu_cxx15_Hashtable_nodeIPN4BEEV10ASTBVConstEEESaIS6_EEvT_S9_T0_	00000019 _ZSt8_DestroyIPPN9__gnu_cxx15_Hashtable_nodeIPN4BEEV10ASTBVConstEEESaIS6_EEvT_S9_T0_
00000000  w    F .gnu.linkonce.t._ZSt8_DestroyIPPN9__gnu_cxx15_Hashtable_nodeIN4BEEV7ASTNodeEEESaIS5_EEvT_S8_T0_	00000019 _ZSt8_DestroyIPPN9__gnu_cxx15_Hashtable_nodeIN4BEEV7ASTNodeEEESaIS5_EEvT_S8_T0_
00000000  w    F .gnu.linkonce.t._ZSt8_DestroyIPPN9__gnu_cxx15_Hashtable_nodeISt4pairIKN4BEEV7ASTNodeEiEEESaIS8_EEvT_SB_T0_	00000019 _ZSt8_DestroyIPPN9__gnu_cxx15_Hashtable_nodeISt4pairIKN4BEEV7ASTNodeEiEEESaIS8_EEvT_SB_T0_
00000000  w    F .gnu.linkonce.t._ZSt8_DestroyIPPN9__gnu_cxx15_Hashtable_nodeISt4pairIKN4BEEV7ASTNodeESt6vectorIS4_SaIS4_EEEEESaISB_EEvT_SE_T0_	00000019 _ZSt8_DestroyIPPN9__gnu_cxx15_Hashtable_nodeISt4pairIKN4BEEV7ASTNodeESt6vectorIS4_SaIS4_EEEEESaISB_EEvT_SE_T0_
00000000  w    F .gnu.linkonce.t._ZSt8_DestroyIPPN9__gnu_cxx15_Hashtable_nodeISt4pairIKN4BEEV7ASTNodeEPNS0_8hash_mapIjbNS0_4hashIjEESt8equal_toIjESaIbEEEEEESaISG_EEvT_SJ_T0_	00000019 _ZSt8_DestroyIPPN9__gnu_cxx15_Hashtable_nodeISt4pairIKN4BEEV7ASTNodeEPNS0_8hash_mapIjbNS0_4hashIjEESt8equal_toIjESaIbEEEEEESaISG_EEvT_SJ_T0_
00000000  w    F .gnu.linkonce.t._ZSt6fill_nIPPN9__gnu_cxx15_Hashtable_nodeISt4pairIKN4BEEV7ASTNodeES4_EEEjS8_ET_SA_T0_RKT1_	00000024 _ZSt6fill_nIPPN9__gnu_cxx15_Hashtable_nodeISt4pairIKN4BEEV7ASTNodeES4_EEEjS8_ET_SA_T0_RKT1_
00000000  w    F .gnu.linkonce.t._ZSt24__uninitialized_fill_n_aIPPN9__gnu_cxx15_Hashtable_nodeISt4pairIKN4BEEV7ASTNodeES4_EEEjS8_S8_EvT_T0_RKT1_SaIT2_E	00000009 _ZSt24__uninitialized_fill_n_aIPPN9__gnu_cxx15_Hashtable_nodeISt4pairIKN4BEEV7ASTNodeES4_EEEjS8_S8_EvT_T0_RKT1_SaIT2_E
00000000  w    F .gnu.linkonce.t._ZSt6fill_nIPPN9__gnu_cxx15_Hashtable_nodeIPN4BEEV11ASTInteriorEEEjS6_ET_S8_T0_RKT1_	00000024 _ZSt6fill_nIPPN9__gnu_cxx15_Hashtable_nodeIPN4BEEV11ASTInteriorEEEjS6_ET_S8_T0_RKT1_
00000000  w    F .gnu.linkonce.t._ZSt24__uninitialized_fill_n_aIPPN9__gnu_cxx15_Hashtable_nodeIPN4BEEV11ASTInteriorEEEjS6_S6_EvT_T0_RKT1_SaIT2_E	00000009 _ZSt24__uninitialized_fill_n_aIPPN9__gnu_cxx15_Hashtable_nodeIPN4BEEV11ASTInteriorEEEjS6_S6_EvT_T0_RKT1_SaIT2_E
00000000  w    F .gnu.linkonce.t._ZSt6fill_nIPPN9__gnu_cxx15_Hashtable_nodeIN4BEEV7ASTNodeEEEjS5_ET_S7_T0_RKT1_	00000024 _ZSt6fill_nIPPN9__gnu_cxx15_Hashtable_nodeIN4BEEV7ASTNodeEEEjS5_ET_S7_T0_RKT1_
00000000  w    F .gnu.linkonce.t._ZSt24__uninitialized_fill_n_aIPPN9__gnu_cxx15_Hashtable_nodeIN4BEEV7ASTNodeEEEjS5_S5_EvT_T0_RKT1_SaIT2_E	00000009 _ZSt24__uninitialized_fill_n_aIPPN9__gnu_cxx15_Hashtable_nodeIN4BEEV7ASTNodeEEEjS5_S5_EvT_T0_RKT1_SaIT2_E
00000000  w    F .gnu.linkonce.t._ZSt6fill_nIPPN9__gnu_cxx15_Hashtable_nodeIPN4BEEV10ASTBVConstEEEjS6_ET_S8_T0_RKT1_	00000024 _ZSt6fill_nIPPN9__gnu_cxx15_Hashtable_nodeIPN4BEEV10ASTBVConstEEEjS6_ET_S8_T0_RKT1_
00000000  w    F .gnu.linkonce.t._ZSt24__uninitialized_fill_n_aIPPN9__gnu_cxx15_Hashtable_nodeIPN4BEEV10ASTBVConstEEEjS6_S6_EvT_T0_RKT1_SaIT2_E	00000009 _ZSt24__uninitialized_fill_n_aIPPN9__gnu_cxx15_Hashtable_nodeIPN4BEEV10ASTBVConstEEEjS6_S6_EvT_T0_RKT1_SaIT2_E
00000000  w    F .gnu.linkonce.t._ZSt6fill_nIPPN9__gnu_cxx15_Hashtable_nodeIPN4BEEV9ASTSymbolEEEjS6_ET_S8_T0_RKT1_	00000024 _ZSt6fill_nIPPN9__gnu_cxx15_Hashtable_nodeIPN4BEEV9ASTSymbolEEEjS6_ET_S8_T0_RKT1_
00000000  w    F .gnu.linkonce.t._ZSt24__uninitialized_fill_n_aIPPN9__gnu_cxx15_Hashtable_nodeIPN4BEEV9ASTSymbolEEEjS6_S6_EvT_T0_RKT1_SaIT2_E	00000009 _ZSt24__uninitialized_fill_n_aIPPN9__gnu_cxx15_Hashtable_nodeIPN4BEEV9ASTSymbolEEEjS6_S6_EvT_T0_RKT1_SaIT2_E
00000000         *UND*	00000000 _ZNSt8ios_base4InitD1Ev
00000000  w    F .gnu.linkonce.t._ZN4BEEV8exprlessENS_7ASTNodeES0_	0000001d _ZN4BEEV8exprlessENS_7ASTNodeES0_
00000090 g     F .text	0000005b _ZNK4BEEV11ASTInterior17ASTInteriorHasherclEPKS0_
000000f0 g     F .text	0000001c _ZN4BEEV7ASTNodeC2ERKS0_
00000110 g     F .text	0000001c _ZN4BEEV7ASTNodeC1ERKS0_
00000130 g     F .text	0000001f _ZN4BEEV7BeevMgr8GetQueryEv
00000000  w    F .gnu.linkonce.t._ZSt8_DestroyIN9__gnu_cxx17__normal_iteratorIPPSt6vectorIN4BEEV7ASTNodeESaIS4_EES2_IS7_SaIS7_EEEES9_EvT_SC_T0_	00000019 _ZSt8_DestroyIN9__gnu_cxx17__normal_iteratorIPPSt6vectorIN4BEEV7ASTNodeESaIS4_EES2_IS7_SaIS7_EEEES9_EvT_SC_T0_
00000150 g     F .text	00000049 _ZN4BEEV10FatalErrorEPKc
00000000         *UND*	00000000 _ZSt4cerr
00000000         *UND*	00000000 _ZSt4endlIcSt11char_traitsIcEERSt13basic_ostreamIT_T0_ES6_
00000000         *UND*	00000000 exit
00000000         *UND*	00000000 BitVector_to_Hex
00000000         *UND*	00000000 _ZStlsISt11char_traitsIcEERSt13basic_ostreamIcT_ES5_PKh
00000000         *UND*	00000000 BitVector_Dispose
00000000         *UND*	00000000 BitVector_to_Bin
00000000         *UND*	00000000 _ZNSolsEPKv
00000000  w    F .gnu.linkonce.t._ZSt11lower_boundIPKmmET_S2_S2_RKT0_	00000043 _ZSt11lower_boundIPKmmET_S2_S2_RKT0_
00000000  w    F .gnu.linkonce.t._ZNSt6vectorIPN9__gnu_cxx15_Hashtable_nodeIN4BEEV7ASTNodeEEESaIS5_EED1Ev	00000034 _ZNSt6vectorIPN9__gnu_cxx15_Hashtable_nodeIN4BEEV7ASTNodeEEESaIS5_EED1Ev
00000000         *UND*	00000000 _ZdlPv
00000000  w    F .gnu.linkonce.t._ZNSt6vectorIPN9__gnu_cxx15_Hashtable_nodeISt4pairIKN4BEEV7ASTNodeES4_EEESaIS8_EED1Ev	00000034 _ZNSt6vectorIPN9__gnu_cxx15_Hashtable_nodeISt4pairIKN4BEEV7ASTNodeES4_EEESaIS8_EED1Ev
00000000  w    F .gnu.linkonce.t._ZNSt6vectorIPN9__gnu_cxx15_Hashtable_nodeIPN4BEEV11ASTInteriorEEESaIS6_EED1Ev	00000034 _ZNSt6vectorIPN9__gnu_cxx15_Hashtable_nodeIPN4BEEV11ASTInteriorEEESaIS6_EED1Ev
00000000  w    F .gnu.linkonce.t._ZNSt6vectorIPN9__gnu_cxx15_Hashtable_nodeIPN4BEEV9ASTSymbolEEESaIS6_EED1Ev	00000034 _ZNSt6vectorIPN9__gnu_cxx15_Hashtable_nodeIPN4BEEV9ASTSymbolEEESaIS6_EED1Ev
00000000  w    F .gnu.linkonce.t._ZNSt6vectorIPS_IN4BEEV7ASTNodeESaIS1_EESaIS4_EED1Ev	00000034 _ZNSt6vectorIPS_IN4BEEV7ASTNodeESaIS1_EESaIS4_EED1Ev
00000000  w    F .gnu.linkonce.t._ZN9__gnu_cxx9hashtableIPN4BEEV10ASTBVConstES3_NS2_16ASTBVConstHasherESt9_IdentityIS3_ENS2_15ASTBVConstEqualESaIS3_EE5clearEv	00000088 _ZN9__gnu_cxx9hashtableIPN4BEEV10ASTBVConstES3_NS2_16ASTBVConstHasherESt9_IdentityIS3_ENS2_15ASTBVConstEqualESaIS3_EE5clearEv
00000000  w    F .gnu.linkonce.t._ZN9__gnu_cxx9hashtableIPN4BEEV9ASTSymbolES3_NS2_15ASTSymbolHasherESt9_IdentityIS3_ENS2_14ASTSymbolEqualESaIS3_EE5clearEv	00000088 _ZN9__gnu_cxx9hashtableIPN4BEEV9ASTSymbolES3_NS2_15ASTSymbolHasherESt9_IdentityIS3_ENS2_14ASTSymbolEqualESaIS3_EE5clearEv
00000000  w    F .gnu.linkonce.t._ZN9__gnu_cxx9hashtableIPN4BEEV11ASTInteriorES3_NS2_17ASTInteriorHasherESt9_IdentityIS3_ENS2_16ASTInteriorEqualESaIS3_EE5clearEv	00000088 _ZN9__gnu_cxx9hashtableIPN4BEEV11ASTInteriorES3_NS2_17ASTInteriorHasherESt9_IdentityIS3_ENS2_16ASTInteriorEqualESaIS3_EE5clearEv
00000000  w    F .gnu.linkonce.t._ZN9__gnu_cxx9hashtableISt4pairIKjbEjNS_4hashIjEESt10_Select1stIS3_ESt8equal_toIjESaIbEE5clearEv	00000088 _ZN9__gnu_cxx9hashtableISt4pairIKjbEjNS_4hashIjEESt10_Select1stIS3_ESt8equal_toIjESaIbEE5clearEv
00000000  w    F .gnu.linkonce.t._ZN9__gnu_cxx19_Hashtable_iteratorISt4pairIKN4BEEV7ASTNodeEPNS_8hash_mapIjbNS_4hashIjEESt8equal_toIjESaIbEEEES3_NS3_13ASTNodeHasherESt10_Select1stISD_ENS3_12ASTNodeEqualESaISC_EEppEv	00000058 _ZN9__gnu_cxx19_Hashtable_iteratorISt4pairIKN4BEEV7ASTNodeEPNS_8hash_mapIjbNS_4hashIjEESt8equal_toIjESaIbEEEES3_NS3_13ASTNodeHasherESt10_Select1stISD_ENS3_12ASTNodeEqualESaISC_EEppEv
00000000  w    F .gnu.linkonce.t._ZN9__gnu_cxx19_Hashtable_iteratorISt4pairIKN4BEEV7ASTNodeESt6vectorIS3_SaIS3_EEES3_NS3_13ASTNodeHasherESt10_Select1stIS8_ENS3_12ASTNodeEqualESaIS7_EEppEv	00000058 _ZN9__gnu_cxx19_Hashtable_iteratorISt4pairIKN4BEEV7ASTNodeESt6vectorIS3_SaIS3_EEES3_NS3_13ASTNodeHasherESt10_Select1stIS8_ENS3_12ASTNodeEqualESaIS7_EEppEv
000001a0 g     F .text	0000004a _ZNK4BEEV7ASTNode16IsAlreadyPrintedEv
00000000  w    F .gnu.linkonce.t._ZN9__gnu_cxx9hashtableIPN4BEEV9ASTSymbolES3_NS2_15ASTSymbolHasherESt9_IdentityIS3_ENS2_14ASTSymbolEqualESaIS3_EE22insert_unique_noresizeERKS3_	000000dc _ZN9__gnu_cxx9hashtableIPN4BEEV9ASTSymbolES3_NS2_15ASTSymbolHasherESt9_IdentityIS3_ENS2_14ASTSymbolEqualESaIS3_EE22insert_unique_noresizeERKS3_
00000000         *UND*	00000000 strcmp
00000000         *UND*	00000000 _Znwj
000001f0 g     F .text	00000072 _ZN4BEEV7BeevMgr12LookupSymbolERNS_9ASTSymbolE
00000000  w    F .gnu.linkonce.t._ZN9__gnu_cxx25_Hashtable_const_iteratorISt4pairIKN4BEEV7ASTNodeES3_ES3_NS3_13ASTNodeHasherESt10_Select1stIS5_ENS3_12ASTNodeEqualESaIS3_EEppEv	00000058 _ZN9__gnu_cxx25_Hashtable_const_iteratorISt4pairIKN4BEEV7ASTNodeES3_ES3_NS3_13ASTNodeHasherESt10_Select1stIS5_ENS3_12ASTNodeEqualESaIS3_EEppEv
00000000  w    F .gnu.linkonce.t._ZN9__gnu_cxx19_Hashtable_iteratorISt4pairIKN4BEEV7ASTNodeES3_ES3_NS3_13ASTNodeHasherESt10_Select1stIS5_ENS3_12ASTNodeEqualESaIS3_EEppEv	00000058 _ZN9__gnu_cxx19_Hashtable_iteratorISt4pairIKN4BEEV7ASTNodeES3_ES3_NS3_13ASTNodeHasherESt10_Select1stIS5_ENS3_12ASTNodeEqualESaIS3_EEppEv
00000000         *UND*	00000000 _ZNSt8ios_base4InitC1Ev
00000000         *UND*	00000000 __dso_handle
00000000         *UND*	00000000 __cxa_atexit
00000000  w    F .gnu.linkonce.t._ZN9__gnu_cxx9hashtableIPN4BEEV10ASTBVConstES3_NS2_16ASTBVConstHasherESt9_IdentityIS3_ENS2_15ASTBVConstEqualESaIS3_EE22insert_unique_noresizeERKS3_	000000d7 _ZN9__gnu_cxx9hashtableIPN4BEEV10ASTBVConstES3_NS2_16ASTBVConstHasherESt9_IdentityIS3_ENS2_15ASTBVConstEqualESaIS3_EE22insert_unique_noresizeERKS3_
00000000         *UND*	00000000 BitVector_Hash
00000000         *UND*	00000000 BitVector_Compare
00000000  w    F .gnu.linkonce.t._ZNSt6vectorIPS_IN4BEEV7ASTNodeESaIS1_EESaIS4_EE13_M_insert_auxEN9__gnu_cxx17__normal_iteratorIPS4_S6_EERKS4_	0000012c _ZNSt6vectorIPS_IN4BEEV7ASTNodeESaIS1_EESaIS4_EE13_M_insert_auxEN9__gnu_cxx17__normal_iteratorIPS4_S6_EERKS4_
00000000         *UND*	00000000 memmove
00000000         *UND*	00000000 _ZSt17__throw_bad_allocv
00000000         *UND*	00000000 _ZSt20__throw_length_errorPKc
00000000  w    F .gnu.linkonce.t._ZNSt6vectorIPS_IN4BEEV7ASTNodeESaIS1_EESaIS4_EE5eraseEN9__gnu_cxx17__normal_iteratorIPS4_S6_EESA_	00000062 _ZNSt6vectorIPS_IN4BEEV7ASTNodeESaIS1_EESaIS4_EE5eraseEN9__gnu_cxx17__normal_iteratorIPS4_S6_EESA_
00000000         *UND*	00000000 _Unwind_Resume
00000000  w    F .gnu.linkonce.t._ZN9__gnu_cxx9hashtableIPN4BEEV9ASTSymbolES3_NS2_15ASTSymbolHasherESt9_IdentityIS3_ENS2_14ASTSymbolEqualESaIS3_EE6resizeEj	000001a9 _ZN9__gnu_cxx9hashtableIPN4BEEV9ASTSymbolES3_NS2_15ASTSymbolHasherESt9_IdentityIS3_ENS2_14ASTSymbolEqualESaIS3_EE6resizeEj
00000000  w    F .gnu.linkonce.t._ZN9__gnu_cxx9hashtableIPN4BEEV9ASTSymbolES3_NS2_15ASTSymbolHasherESt9_IdentityIS3_ENS2_14ASTSymbolEqualESaIS3_EE5eraseERKS3_	00000117 _ZN9__gnu_cxx9hashtableIPN4BEEV9ASTSymbolES3_NS2_15ASTSymbolHasherESt9_IdentityIS3_ENS2_14ASTSymbolEqualESaIS3_EE5eraseERKS3_
00000000         *UND*	00000000 free
00000000  w    F .gnu.linkonce.t._ZN9__gnu_cxx9hashtableIPN4BEEV11ASTInteriorES3_NS2_17ASTInteriorHasherESt9_IdentityIS3_ENS2_16ASTInteriorEqualESaIS3_EE6resizeEj	00000240 _ZN9__gnu_cxx9hashtableIPN4BEEV11ASTInteriorES3_NS2_17ASTInteriorHasherESt9_IdentityIS3_ENS2_16ASTInteriorEqualESaIS3_EE6resizeEj
00000000         *UND*	00000000 __cxa_begin_catch
00000000         *UND*	00000000 __cxa_rethrow
00000000         *UND*	00000000 __cxa_end_catch
00000000  w    F .gnu.linkonce.t._ZN9__gnu_cxx9hashtableIPN4BEEV10ASTBVConstES3_NS2_16ASTBVConstHasherESt9_IdentityIS3_ENS2_15ASTBVConstEqualESaIS3_EE6resizeEj	00000230 _ZN9__gnu_cxx9hashtableIPN4BEEV10ASTBVConstES3_NS2_16ASTBVConstHasherESt9_IdentityIS3_ENS2_15ASTBVConstEqualESaIS3_EE6resizeEj
00000000  w    F .gnu.linkonce.t._ZN9__gnu_cxx9hashtableIPN4BEEV10ASTBVConstES3_NS2_16ASTBVConstHasherESt9_IdentityIS3_ENS2_15ASTBVConstEqualESaIS3_EE5eraseERKS3_	00000154 _ZN9__gnu_cxx9hashtableIPN4BEEV10ASTBVConstES3_NS2_16ASTBVConstHasherESt9_IdentityIS3_ENS2_15ASTBVConstEqualESaIS3_EE5eraseERKS3_
000003b0 g     F .text	00000057 _ZN4BEEV7BeevMgr8AddQueryERKNS_7ASTNodeE
00000000  w    F .gnu.linkonce.t._ZSt8_DestroyIN9__gnu_cxx17__normal_iteratorIPSt4pairIN4BEEV7ASTNodeES4_ESt6vectorIS5_SaIS5_EEEES8_EvT_SB_T0_	00000096 _ZSt8_DestroyIN9__gnu_cxx17__normal_iteratorIPSt4pairIN4BEEV7ASTNodeES4_ESt6vectorIS5_SaIS5_EEEES8_EvT_SB_T0_
00000000  w    F .gnu.linkonce.t._ZNSt6vectorISt4pairIN4BEEV7ASTNodeES2_ESaIS3_EE5eraseEN9__gnu_cxx17__normal_iteratorIPS3_S5_EES9_	00000133 _ZNSt6vectorISt4pairIN4BEEV7ASTNodeES2_ESaIS3_EE5eraseEN9__gnu_cxx17__normal_iteratorIPS3_S5_EES9_
00000000  w    F .gnu.linkonce.t._ZNSt6vectorISt4pairIN4BEEV7ASTNodeES2_ESaIS3_EE13_M_insert_auxEN9__gnu_cxx17__normal_iteratorIPS3_S5_EERKS3_	00000392 _ZNSt6vectorISt4pairIN4BEEV7ASTNodeES2_ESaIS3_EE13_M_insert_auxEN9__gnu_cxx17__normal_iteratorIPS3_S5_EERKS3_
00000000  w    F .gnu.linkonce.t._ZN9__gnu_cxx9hashtableISt4pairIKN4BEEV7ASTNodeES3_ES3_NS3_13ASTNodeHasherESt10_Select1stIS5_ENS3_12ASTNodeEqualESaIS3_EE6resizeEj	00000187 _ZN9__gnu_cxx9hashtableISt4pairIKN4BEEV7ASTNodeES3_ES3_NS3_13ASTNodeHasherESt10_Select1stIS5_ENS3_12ASTNodeEqualESaIS3_EE6resizeEj
00000000  w    F .gnu.linkonce.t._ZN9__gnu_cxx9hashtableISt4pairIKN4BEEV7ASTNodeES3_ES3_NS3_13ASTNodeHasherESt10_Select1stIS5_ENS3_12ASTNodeEqualESaIS3_EE14find_or_insertERKS5_	000000c5 _ZN9__gnu_cxx9hashtableISt4pairIKN4BEEV7ASTNodeES3_ES3_NS3_13ASTNodeHasherESt10_Select1stIS5_ENS3_12ASTNodeEqualESaIS3_EE14find_or_insertERKS5_
00000000  w    F .gnu.linkonce.t._ZN9__gnu_cxx9hashtableIPN4BEEV11ASTInteriorES3_NS2_17ASTInteriorHasherESt9_IdentityIS3_ENS2_16ASTInteriorEqualESaIS3_EE22insert_unique_noresizeERKS3_	000001b0 _ZN9__gnu_cxx9hashtableIPN4BEEV11ASTInteriorES3_NS2_17ASTInteriorHasherESt9_IdentityIS3_ENS2_16ASTInteriorEqualESaIS3_EE22insert_unique_noresizeERKS3_
00000410 g     F .text	000001f4 _ZN4BEEV7BeevMgr22LookupOrCreateInteriorEPNS_11ASTInteriorE
00000000  w    F .gnu.linkonce.t._ZSt8_DestroyIN9__gnu_cxx17__normal_iteratorIPN4BEEV7ASTNodeESt6vectorIS3_SaIS3_EEEES6_EvT_S9_T0_	00000047 _ZSt8_DestroyIN9__gnu_cxx17__normal_iteratorIPN4BEEV7ASTNodeESt6vectorIS3_SaIS3_EEEES6_EvT_S9_T0_
00000000  w    F .gnu.linkonce.t._ZN9__gnu_cxx9hashtableIPN4BEEV11ASTInteriorES3_NS2_17ASTInteriorHasherESt9_IdentityIS3_ENS2_16ASTInteriorEqualESaIS3_EE5eraseERKS3_	000002b9 _ZN9__gnu_cxx9hashtableIPN4BEEV11ASTInteriorES3_NS2_17ASTInteriorHasherESt9_IdentityIS3_ENS2_16ASTInteriorEqualESaIS3_EE5eraseERKS3_
00000640 g     F .text	000000a7 _ZN4BEEV7BeevMgr8PopQueryEv
00000000  w    F .gnu.linkonce.t._ZN9__gnu_cxx9hashtableISt4pairIKN4BEEV7ASTNodeES3_ES3_NS3_13ASTNodeHasherESt10_Select1stIS5_ENS3_12ASTNodeEqualESaIS3_EE22insert_unique_noresizeERKS5_	000000ca _ZN9__gnu_cxx9hashtableISt4pairIKN4BEEV7ASTNodeES3_ES3_NS3_13ASTNodeHasherESt10_Select1stIS5_ENS3_12ASTNodeEqualESaIS3_EE22insert_unique_noresizeERKS5_
000006f0 g     F .text	000000da _ZN4BEEV7BeevMgr31CopySolverMap_To_CounterExampleEv
00000000  w    F .gnu.linkonce.t._ZN4BEEV9arithlessENS_7ASTNodeES0_	0000013e _ZN4BEEV9arithlessENS_7ASTNodeES0_
00000000  w    F .gnu.linkonce.t._ZSt25__unguarded_linear_insertIN9__gnu_cxx17__normal_iteratorIPN4BEEV7ASTNodeESt6vectorIS3_SaIS3_EEEES3_PFbS3_S3_EEvT_T0_T1_	0000015c _ZSt25__unguarded_linear_insertIN9__gnu_cxx17__normal_iteratorIPN4BEEV7ASTNodeESt6vectorIS3_SaIS3_EEEES3_PFbS3_S3_EEvT_T0_T1_
00000000  w    F .gnu.linkonce.t._ZSt16__insertion_sortIN9__gnu_cxx17__normal_iteratorIPN4BEEV7ASTNodeESt6vectorIS3_SaIS3_EEEEPFbS3_S3_EEvT_SB_T0_	0000025d _ZSt16__insertion_sortIN9__gnu_cxx17__normal_iteratorIPN4BEEV7ASTNodeESt6vectorIS3_SaIS3_EEEEPFbS3_S3_EEvT_SB_T0_
00000000  w    F .gnu.linkonce.t._ZSt22__final_insertion_sortIN9__gnu_cxx17__normal_iteratorIPN4BEEV7ASTNodeESt6vectorIS3_SaIS3_EEEEPFbS3_S3_EEvT_SB_T0_	000000c8 _ZSt22__final_insertion_sortIN9__gnu_cxx17__normal_iteratorIPN4BEEV7ASTNodeESt6vectorIS3_SaIS3_EEEEPFbS3_S3_EEvT_SB_T0_
00000000  w    F .gnu.linkonce.t._ZSt21__unguarded_partitionIN9__gnu_cxx17__normal_iteratorIPN4BEEV7ASTNodeESt6vectorIS3_SaIS3_EEEES3_PFbS3_S3_EET_SB_SB_T0_T1_	00000248 _ZSt21__unguarded_partitionIN9__gnu_cxx17__normal_iteratorIPN4BEEV7ASTNodeESt6vectorIS3_SaIS3_EEEES3_PFbS3_S3_EET_SB_SB_T0_T1_
00000000  w    F .gnu.linkonce.t._ZSt11__push_heapIN9__gnu_cxx17__normal_iteratorIPN4BEEV7ASTNodeESt6vectorIS3_SaIS3_EEEEiS3_PFbS3_S3_EEvT_T0_SC_T1_T2_	00000188 _ZSt11__push_heapIN9__gnu_cxx17__normal_iteratorIPN4BEEV7ASTNodeESt6vectorIS3_SaIS3_EEEEiS3_PFbS3_S3_EEvT_T0_SC_T1_T2_
00000000  w    F .gnu.linkonce.t._ZSt13__adjust_heapIN9__gnu_cxx17__normal_iteratorIPN4BEEV7ASTNodeESt6vectorIS3_SaIS3_EEEEiS3_PFbS3_S3_EEvT_T0_SC_T1_T2_	00000224 _ZSt13__adjust_heapIN9__gnu_cxx17__normal_iteratorIPN4BEEV7ASTNodeESt6vectorIS3_SaIS3_EEEEiS3_PFbS3_S3_EEvT_T0_SC_T1_T2_
00000000  w    F .gnu.linkonce.t._ZSt9sort_heapIN9__gnu_cxx17__normal_iteratorIPN4BEEV7ASTNodeESt6vectorIS3_SaIS3_EEEEPFbS3_S3_EEvT_SB_T0_	0000015a _ZSt9sort_heapIN9__gnu_cxx17__normal_iteratorIPN4BEEV7ASTNodeESt6vectorIS3_SaIS3_EEEEPFbS3_S3_EEvT_SB_T0_
00000000  w    F .gnu.linkonce.t._ZSt12partial_sortIN9__gnu_cxx17__normal_iteratorIPN4BEEV7ASTNodeESt6vectorIS3_SaIS3_EEEEPFbS3_S3_EEvT_SB_SB_T0_	00000285 _ZSt12partial_sortIN9__gnu_cxx17__normal_iteratorIPN4BEEV7ASTNodeESt6vectorIS3_SaIS3_EEEEPFbS3_S3_EEvT_SB_SB_T0_
00000000  w    F .gnu.linkonce.t._ZSt16__introsort_loopIN9__gnu_cxx17__normal_iteratorIPN4BEEV7ASTNodeESt6vectorIS3_SaIS3_EEEEiPFbS3_S3_EEvT_SB_T0_T1_	000004ab _ZSt16__introsort_loopIN9__gnu_cxx17__normal_iteratorIPN4BEEV7ASTNodeESt6vectorIS3_SaIS3_EEEEiPFbS3_S3_EEvT_SB_T0_T1_
000007d0 g     F .text	00000050 _ZN4BEEV11SortByArithERSt6vectorINS_7ASTNodeESaIS1_EE
00000820 g     F .text	00000050 _ZN4BEEV13SortByExprNumERSt6vectorINS_7ASTNodeESaIS1_EE
00000000  w    F .gnu.linkonce.t._ZN9__gnu_cxx9hashtableISt4pairIKN4BEEV7ASTNodeES3_ES3_NS3_13ASTNodeHasherESt10_Select1stIS5_ENS3_12ASTNodeEqualESaIS3_EE5clearEv	0000011e _ZN9__gnu_cxx9hashtableISt4pairIKN4BEEV7ASTNodeES3_ES3_NS3_13ASTNodeHasherESt10_Select1stIS5_ENS3_12ASTNodeEqualESaIS3_EE5clearEv
00000000  w    F .gnu.linkonce.t._ZSt8_DestroyIPSt4pairIN4BEEV7ASTNodeES2_ESaIS3_EEvT_S6_T0_	00000092 _ZSt8_DestroyIPSt4pairIN4BEEV7ASTNodeES2_ESaIS3_EEvT_S6_T0_
00000000  w    F .gnu.linkonce.t._ZNSt6vectorISt4pairIN4BEEV7ASTNodeES2_ESaIS3_EED1Ev	00000054 _ZNSt6vectorISt4pairIN4BEEV7ASTNodeES2_ESaIS3_EED1Ev
00000000  w    F .gnu.linkonce.t._ZN9__gnu_cxx9hashtableISt4pairIKN4BEEV7ASTNodeEiES3_NS3_13ASTNodeHasherESt10_Select1stIS5_ENS3_12ASTNodeEqualESaIiEE5clearEv	000000c8 _ZN9__gnu_cxx9hashtableISt4pairIKN4BEEV7ASTNodeEiES3_NS3_13ASTNodeHasherESt10_Select1stIS5_ENS3_12ASTNodeEqualESaIiEE5clearEv
00000000  w    F .gnu.linkonce.t._ZN9__gnu_cxx9hashtableISt4pairIKN4BEEV7ASTNodeEPNS_8hash_mapIjbNS_4hashIjEESt8equal_toIjESaIbEEEES3_NS3_13ASTNodeHasherESt10_Select1stISD_ENS3_12ASTNodeEqualESaISC_EE5clearEv	000000c8 _ZN9__gnu_cxx9hashtableISt4pairIKN4BEEV7ASTNodeEPNS_8hash_mapIjbNS_4hashIjEESt8equal_toIjESaIbEEEES3_NS3_13ASTNodeHasherESt10_Select1stISD_ENS3_12ASTNodeEqualESaISC_EE5clearEv
00000000  w    F .gnu.linkonce.t._ZSt8_DestroyIPN4BEEV7ASTNodeESaIS1_EEvT_S4_T0_	00000047 _ZSt8_DestroyIPN4BEEV7ASTNodeESaIS1_EEvT_S4_T0_
00000000  w    F .gnu.linkonce.t._ZNSs12_S_constructIPcEES0_T_S1_RKSaIcESt20forward_iterator_tag	00000083 _ZNSs12_S_constructIPcEES0_T_S1_RKSaIcESt20forward_iterator_tag
00000000         *UND*	00000000 _ZNSs4_Rep20_S_empty_rep_storageE
00000000         *UND*	00000000 _ZNSs4_Rep9_S_createEjjRKSaIcE
00000000         *UND*	00000000 _ZNSs4_Rep11_S_terminalE
00000000         *UND*	00000000 memcpy
00000000         *UND*	00000000 _ZSt19__throw_logic_errorPKc
00000000  w    F .gnu.linkonce.t._ZNSsC1IPcEET_S1_RKSaIcE	00000023 _ZNSsC1IPcEET_S1_RKSaIcE
00000000  w    F .gnu.linkonce.t._ZN9__gnu_cxx9hashtableIN4BEEV7ASTNodeES2_NS2_13ASTNodeHasherESt9_IdentityIS2_ENS2_12ASTNodeEqualESaIS2_EE6resizeEj	00000187 _ZN9__gnu_cxx9hashtableIN4BEEV7ASTNodeES2_NS2_13ASTNodeHasherESt9_IdentityIS2_ENS2_12ASTNodeEqualESaIS2_EE6resizeEj
00000000  w    F .gnu.linkonce.t._ZNSt6vectorIN4BEEV7ASTNodeESaIS1_EE15_M_range_insertIN9__gnu_cxx17__normal_iteratorIPKS1_S3_EEEEvNS6_IPS1_S3_EET_SC_St20forward_iterator_tag	00000386 _ZNSt6vectorIN4BEEV7ASTNodeESaIS1_EE15_M_range_insertIN9__gnu_cxx17__normal_iteratorIPKS1_S3_EEEEvNS6_IPS1_S3_EET_SC_St20forward_iterator_tag
00000000  w    F .gnu.linkonce.t._ZNSt6vectorIN4BEEV7ASTNodeESaIS1_EE13_M_insert_auxEN9__gnu_cxx17__normal_iteratorIPS1_S3_EERKS1_	00000244 _ZNSt6vectorIN4BEEV7ASTNodeESaIS1_EE13_M_insert_auxEN9__gnu_cxx17__normal_iteratorIPS1_S3_EERKS1_
00000870 g     F .text	00000060 _ZN4BEEV7BeevMgr4PushEv
00000000  w    F .gnu.linkonce.t._ZNSt6vectorIN4BEEV7ASTNodeESaIS1_EE15_M_range_insertIN9__gnu_cxx17__normal_iteratorIPS1_S3_EEEEvS8_T_S9_St20forward_iterator_tag	00000386 _ZNSt6vectorIN4BEEV7ASTNodeESaIS1_EE15_M_range_insertIN9__gnu_cxx17__normal_iteratorIPS1_S3_EEEEvS8_T_S9_St20forward_iterator_tag
00000000  w    F .gnu.linkonce.t._ZNSt6vectorIN4BEEV7ASTNodeESaIS1_EEC1ERKS3_	000000a5 _ZNSt6vectorIN4BEEV7ASTNodeESaIS1_EEC1ERKS3_
00000000  w    F .gnu.linkonce.t._ZN9__gnu_cxx9hashtableIN4BEEV7ASTNodeES2_NS2_13ASTNodeHasherESt9_IdentityIS2_ENS2_12ASTNodeEqualESaIS2_EE22insert_unique_noresizeERKS2_	000000b9 _ZN9__gnu_cxx9hashtableIN4BEEV7ASTNodeES2_NS2_13ASTNodeHasherESt9_IdentityIS2_ENS2_12ASTNodeEqualESaIS2_EE22insert_unique_noresizeERKS2_
000008d0 g     F .text	00000039 _ZNK4BEEV7ASTNode18MarkAlreadyPrintedEv
00000910 g     F .text	00000330 _ZNK4BEEV7ASTNode10LispPrint1ERSoi
00000000         *UND*	00000000 _ZNSolsEm
00000000         *UND*	00000000 _ZNSolsEl
00000c40 g     F .text	0000003a _ZNK4BEEV7ASTNode16LispPrint_indentERSoi
00000000         *UND*	00000000 _ZN4BEEVlsERSoRKNS_6SpacerE
00000c80 g     F .text	00000042 _ZN4BEEV12LispPrintVecERSoRKSt6vectorINS_7ASTNodeESaIS2_EEi
00000000  w    F .gnu.linkonce.t._ZNSt6vectorIN4BEEV7ASTNodeESaIS1_EE5eraseEN9__gnu_cxx17__normal_iteratorIPS1_S3_EES7_	000000cb _ZNSt6vectorIN4BEEV7ASTNodeESaIS1_EE5eraseEN9__gnu_cxx17__normal_iteratorIPS1_S3_EES7_
00000000  w    F .gnu.linkonce.t._ZN9__gnu_cxx9hashtableIN4BEEV7ASTNodeES2_NS2_13ASTNodeHasherESt9_IdentityIS2_ENS2_12ASTNodeEqualESaIS2_EE5clearEv	000000c8 _ZN9__gnu_cxx9hashtableIN4BEEV7ASTNodeES2_NS2_13ASTNodeHasherESt9_IdentityIS2_ENS2_12ASTNodeEqualESaIS2_EE5clearEv
00000cd0 g     F .text	0000003a _ZNK4BEEV7ASTNode9LispPrintERSoi
00000d10 g     F .text	000000e4 _ZN4BEEV10FatalErrorEPKcRKNS_7ASTNodeEi
00000e00 g     F .text	000000fa _ZN4BEEV7BeevMgr9AddAssertERKNS_7ASTNodeE
00000000         *UND*	00000000 _ZN4BEEV16_kind_categoriesE
00000f00 g     F .text	00000034 _ZNK4BEEV7ASTNode10GetBVConstEv
00000f40 g     F .text	00000082 _ZN4BEEV7BeevMgr18CreateInteriorNodeENS_4KindEPNS_11ASTInteriorERKSt6vectorINS_7ASTNodeESaIS5_EE
00000fd0 g     F .text	00000ebb _ZNK4BEEV7ASTNode9PL_Print1ERSoib
00001e90 g     F .text	00000032 _ZNK4BEEV7ASTNode7GetNameEv
00001ed0 g     F .text	000000b8 _ZN4BEEV2lpENS_7ASTNodeE
00000000         *UND*	00000000 _ZSt4cout
00001f90 g     F .text	000000b2 _ZN4BEEVlsERSoRKN9__gnu_cxx8hash_mapINS_7ASTNodeES3_NS3_13ASTNodeHasherENS3_12ASTNodeEqualESaIS3_EEE
00002050 g     F .text	0000003f _ZN4BEEV5lpvecERKSt6vectorINS_7ASTNodeESaIS1_EE
00000000  w    F .gnu.linkonce.t._ZNSt6vectorIN4BEEV7ASTNodeESaIS1_EED1Ev	00000054 _ZNSt6vectorIN4BEEV7ASTNodeESaIS1_EED1Ev
00000000  w    F .gnu.linkonce.t._ZStplIcSt11char_traitsIcESaIcEESbIT_T0_T1_EPKS3_RKS6_	0000009e _ZStplIcSt11char_traitsIcESaIcEESbIT_T0_T1_EPKS3_RKS6_
00000000         *UND*	00000000 strlen
00000000         *UND*	00000000 _ZNSs7reserveEj
00000000         *UND*	00000000 _ZNSs6appendEPKcj
00000000         *UND*	00000000 _ZNSs6appendERKSs
00000000         *UND*	00000000 _ZN9__gnu_cxx18__exchange_and_addEPVii
00000000         *UND*	00000000 _ZNSs4_Rep10_M_destroyERKSaIcE
00002090 g     F .text	0000005f _ZN4BEEV11ASTInternalD2Ev
00000000         *UND*	00000000 BitVector_Destroy
00002140 g     F .text	00000012 _ZN4BEEV9ASTSymbolD2Ev
00002160 g     F .text	00000106 _ZN4BEEV7BeevMgr10CreateNodeENS_4KindERKNS_7ASTNodeES4_S4_RKSt6vectorIS2_SaIS2_EE
000022c0 g     F .text	00000012 _ZN4BEEV11ASTInteriorD2Ev
000022e0 g     F .text	00000084 _ZN4BEEV7BeevMgr10CreateNodeENS_4KindERKSt6vectorINS_7ASTNodeESaIS3_EE
00002370 g     F .text	00000098 _ZN4BEEV7BeevMgr10CreateNodeENS_4KindERKNS_7ASTNodeERKSt6vectorIS2_SaIS2_EE
00002410 g     F .text	000000cd _ZN4BEEV7BeevMgr10CreateNodeENS_4KindERKNS_7ASTNodeES4_RKSt6vectorIS2_SaIS2_EE
000025b0 g     F .text	00000151 _ZN4BEEV7BeevMgr21LookupOrCreateBVConstERNS_10ASTBVConstE
00000000         *UND*	00000000 BitVector_Clone
00002710 g     F .text	00000124 _ZN4BEEV7BeevMgr13CreateBVConstEPjj
00002840 g     F .text	0000003c _ZN4BEEV7BeevMgr14CreateMaxConstEj
00000000         *UND*	00000000 BitVector_Create
00000000         *UND*	00000000 BitVector_Fill
00002880 g     F .text	00000044 _ZN4BEEV7BeevMgr14CreateTwoConstEj
00000000         *UND*	00000000 BitVector_increment
000028d0 g     F .text	0000003c _ZN4BEEV7BeevMgr14CreateOneConstEj
00002910 g     F .text	0000002f _ZN4BEEV7BeevMgr15CreateZeroConstEj
00002940 g     F .text	00000162 _ZN4BEEV7BeevMgr13CreateBVConstEPKci
00000000         *UND*	00000000 BitVector_Error
00000000         *UND*	00000000 BitVector_from_Bin
00000000         *UND*	00000000 BitVector_from_Dec
00000000         *UND*	00000000 BitVector_from_Hex
00002ab0 g     F .text	000000e4 _ZN4BEEV7BeevMgr13CreateBVConstEjy
00000000         *UND*	00000000 BitVector_Chunk_Store
00002ba0 g     F .text	00000147 _ZN4BEEV7BeevMgr20LookupOrCreateSymbolERNS_9ASTSymbolE
00000000         *UND*	00000000 strdup
00002cf0 g     F .text	00000098 _ZN4BEEV7BeevMgr12CreateSymbolEPKc
00002d90 g     F .text	00000253 _ZN4BEEV7BeevMgr6NewVarEj
00000000         *UND*	00000000 _ZNSsC1EPKcRKSaIcE
00000000         *UND*	00000000 sprintf
00002ff0 g     F .text	000001fb _ZN4BEEV7BeevMgr11NewArrayVarEjj
000031f0 g     F .text	000009db _ZNK4BEEV7ASTNode10LetizeNodeEv
00000000         *UND*	00000000 _ZNSt19basic_ostringstreamIcSt11char_traitsIcESaIcEEC1ESt13_Ios_Openmode
00000000         *UND*	00000000 _ZNSs6assignERKSs
00000000         *UND*	00000000 _ZTVSt19basic_ostringstreamIcSt11char_traitsIcESaIcEE
00000000         *UND*	00000000 _ZTVSt15basic_stringbufIcSt11char_traitsIcESaIcEE
00000000         *UND*	00000000 _ZTVSt15basic_streambufIcSt11char_traitsIcEE
00000000         *UND*	00000000 _ZNSt6localeD1Ev
00000000         *UND*	00000000 _ZTTSt19basic_ostringstreamIcSt11char_traitsIcESaIcEE
00000000         *UND*	00000000 _ZTVSt9basic_iosIcSt11char_traitsIcEE
00000000         *UND*	00000000 _ZNSt8ios_baseD2Ev
00003bd0 g     F .text	00000485 _ZNK4BEEV7ASTNode8PL_PrintERSoi
00004060 g     F .text	000000c2 _ZN4BEEV35Convert_MINISATVar_To_ASTNode_PrintEiii
00004130 g     F .text	00000096 _ZN4BEEV7BeevMgr3PopEv
000041d0 g     F .text	000000a6 _ZN4BEEV7BeevMgr10GetAssertsEv
00004280 g     F .text	00000188 _ZN4BEEV7BeevMgr8NodeSizeERKNS_7ASTNodeEb
00004410 g     F .text	000000c3 _ZN4BEEV7BeevMgr12ASTNodeStatsEPKcRKNS_7ASTNodeE
00000000  w    F .gnu.linkonce.t._ZN9__gnu_cxx9hashtableISt4pairIKN4BEEV7ASTNodeESt6vectorIS3_SaIS3_EEES3_NS3_13ASTNodeHasherESt10_Select1stIS8_ENS3_12ASTNodeEqualESaIS7_EE5clearEv	00000140 _ZN9__gnu_cxx9hashtableISt4pairIKN4BEEV7ASTNodeESt6vectorIS3_SaIS3_EEES3_NS3_13ASTNodeHasherESt10_Select1stIS8_ENS3_12ASTNodeEqualESaIS7_EE5clearEv
000044e0 g     F .text	0000026d _ZN4BEEV7BeevMgr14ClearAllCachesEv
00004750 g     F .text	000002b3 _ZN4BEEV7BeevMgr14ClearAllTablesEv
00004a10 g     F .text	00000abd _ZN4BEEV7BeevMgrD1Ev
000054d0 g     F .text	00000abd _ZN4BEEV7BeevMgrD2Ev
00005ff0 g     F .text	00001735 _ZN4BEEV7BeevMgr11BVTypeCheckERKNS_7ASTNodeE
00000000         *UND*	00000000 __gxx_personality_v0



ASTUtil.o:     file format elf32-i386

SYMBOL TABLE:
00000000 l    df *ABS*	00000000 ASTUtil.cpp
00000000 l    d  .text	00000000 .text
00000000 l    d  .data	00000000 .data
00000000 l    d  .bss	00000000 .bss
00000000 l    d  .ctors	00000000 .ctors
00000050 l     F .text	00000010 _GLOBAL__I__ZN4BEEVlsERSoRKNS_6SpacerE
00000000 l     O .bss	00000001 _ZSt8__ioinit
00000008 l     O .bss	00000008 _ZGVZN4BEEV16CountersAndStatsEPKcE1s
00000000 l    d  .rodata	00000000 .rodata
00000000 l     O .rodata	00000070 _ZN9__gnu_cxx16__stl_prime_listE
00000000 l    d  .gnu.linkonce.t._ZSt8_DestroyIPPN9__gnu_cxx15_Hashtable_nodeISt4pairIKPKciEEESaIS8_EEvT_SB_T0_	00000000 .gnu.linkonce.t._ZSt8_DestroyIPPN9__gnu_cxx15_Hashtable_nodeISt4pairIKPKciEEESaIS8_EEvT_SB_T0_
00000000 l    d  .gnu.linkonce.t._ZSt6fill_nIPPN9__gnu_cxx15_Hashtable_nodeISt4pairIKPKciEEEjS8_ET_SA_T0_RKT1_	00000000 .gnu.linkonce.t._ZSt6fill_nIPPN9__gnu_cxx15_Hashtable_nodeISt4pairIKPKciEEEjS8_ET_SA_T0_RKT1_
00000000 l    d  .gnu.linkonce.t._ZSt24__uninitialized_fill_n_aIPPN9__gnu_cxx15_Hashtable_nodeISt4pairIKPKciEEEjS8_S8_EvT_T0_RKT1_SaIT2_E	00000000 .gnu.linkonce.t._ZSt24__uninitialized_fill_n_aIPPN9__gnu_cxx15_Hashtable_nodeISt4pairIKPKciEEEjS8_S8_EvT_T0_RKT1_SaIT2_E
00000000 l     F .text	00000010 __tcf_1
00000010 l     F .text	0000003e _Z41__static_initialization_and_destruction_0ii
00000000 l    d  .gnu.linkonce.t._ZSt4fillIN9__gnu_cxx17__normal_iteratorIPPNS0_15_Hashtable_nodeISt4pairIKPKciEEESt6vectorIS9_SaIS9_EEEES9_EvT_SF_RKT0_	00000000 .gnu.linkonce.t._ZSt4fillIN9__gnu_cxx17__normal_iteratorIPPNS0_15_Hashtable_nodeISt4pairIKPKciEEESt6vectorIS9_SaIS9_EEEES9_EvT_SF_RKT0_
00000000 l    d  .gnu.linkonce.t._ZSt6fill_nIN9__gnu_cxx17__normal_iteratorIPPNS0_15_Hashtable_nodeISt4pairIKPKciEEESt6vectorIS9_SaIS9_EEEEjS9_ET_SF_T0_RKT1_	00000000 .gnu.linkonce.t._ZSt6fill_nIN9__gnu_cxx17__normal_iteratorIPPNS0_15_Hashtable_nodeISt4pairIKPKciEEESt6vectorIS9_SaIS9_EEEEjS9_ET_SF_T0_RKT1_
00000000 l    d  .gnu.linkonce.t._ZSt24__uninitialized_fill_n_aIN9__gnu_cxx17__normal_iteratorIPPNS0_15_Hashtable_nodeISt4pairIKPKciEEESt6vectorIS9_SaIS9_EEEEjS9_S9_EvT_T0_RKT1_SaIT2_E	00000000 .gnu.linkonce.t._ZSt24__uninitialized_fill_n_aIN9__gnu_cxx17__normal_iteratorIPPNS0_15_Hashtable_nodeISt4pairIKPKciEEESt6vectorIS9_SaIS9_EEEEjS9_S9_EvT_T0_RKT1_SaIT2_E
00000000 l    d  .gnu.linkonce.t._ZSt8_DestroyIN9__gnu_cxx17__normal_iteratorIPPNS0_15_Hashtable_nodeISt4pairIKPKciEEESt6vectorIS9_SaIS9_EEEESC_EvT_SF_T0_	00000000 .gnu.linkonce.t._ZSt8_DestroyIN9__gnu_cxx17__normal_iteratorIPPNS0_15_Hashtable_nodeISt4pairIKPKciEEESt6vectorIS9_SaIS9_EEEESC_EvT_SF_T0_
00000000 l    d  .gnu.linkonce.t._ZSt11lower_boundIPKmmET_S2_S2_RKT0_	00000000 .gnu.linkonce.t._ZSt11lower_boundIPKmmET_S2_S2_RKT0_
00000000 l    d  .gnu.linkonce.t._ZN9__gnu_cxx19_Hashtable_iteratorISt4pairIKPKciES3_NS_4hashIPcEESt10_Select1stIS5_EN4BEEV5eqstrESaIiEEppEv	00000000 .gnu.linkonce.t._ZN9__gnu_cxx19_Hashtable_iteratorISt4pairIKPKciES3_NS_4hashIPcEESt10_Select1stIS5_EN4BEEV5eqstrESaIiEEppEv
00000000 l    d  .gnu.linkonce.t._ZN9__gnu_cxx9hashtableISt4pairIKPKciES3_NS_4hashIPcEESt10_Select1stIS5_EN4BEEV5eqstrESaIiEE5clearEv	00000000 .gnu.linkonce.t._ZN9__gnu_cxx9hashtableISt4pairIKPKciES3_NS_4hashIPcEESt10_Select1stIS5_EN4BEEV5eqstrESaIiEE5clearEv
00000000 l    d  .rodata.str1.1	00000000 .rodata.str1.1
00000110 l     F .text	00000042 __tcf_0
00000010 l     O .bss	00000014 _ZZN4BEEV16CountersAndStatsEPKcE1s
00000000 l    d  .gnu.linkonce.t._ZN9__gnu_cxx9hashtableISt4pairIKPKciES3_NS_4hashIPcEESt10_Select1stIS5_EN4BEEV5eqstrESaIiEE6resizeEj	00000000 .gnu.linkonce.t._ZN9__gnu_cxx9hashtableISt4pairIKPKciES3_NS_4hashIPcEESt10_Select1stIS5_EN4BEEV5eqstrESaIiEE6resizeEj
00000000 l    d  .gcc_except_table	00000000 .gcc_except_table
00000000 l    d  .gnu.linkonce.t._ZN9__gnu_cxx9hashtableISt4pairIKPKciES3_NS_4hashIPcEESt10_Select1stIS5_EN4BEEV5eqstrESaIiEE14find_or_insertERKS5_	00000000 .gnu.linkonce.t._ZN9__gnu_cxx9hashtableISt4pairIKPKciES3_NS_4hashIPcEESt10_Select1stIS5_EN4BEEV5eqstrESaIiEE14find_or_insertERKS5_
00000000 l    d  .gnu.linkonce.t._ZNSt6vectorIPN9__gnu_cxx15_Hashtable_nodeISt4pairIKPKciEEESaIS8_EE14_M_fill_insertENS0_17__normal_iteratorIPS8_SA_EEjRKS8_	00000000 .gnu.linkonce.t._ZNSt6vectorIPN9__gnu_cxx15_Hashtable_nodeISt4pairIKPKciEEESaIS8_EE14_M_fill_insertENS0_17__normal_iteratorIPS8_SA_EEjRKS8_
00000000 l    d  .gnu.linkonce.t._ZNSt6vectorIPN9__gnu_cxx15_Hashtable_nodeISt4pairIKPKciEEESaIS8_EE7reserveEj	00000000 .gnu.linkonce.t._ZNSt6vectorIPN9__gnu_cxx15_Hashtable_nodeISt4pairIKPKciEEESaIS8_EE7reserveEj
00000000 l    d  .rodata.str1.4	00000000 .rodata.str1.4
00000000 l    d  .eh_frame	00000000 .eh_frame
00000000 l    d  .note.GNU-stack	00000000 .note.GNU-stack
00000000 l    d  .comment	00000000 .comment
00000000 l    d  .group	00000000 .group
00000000 l    d  .group	00000000 .group
00000000 l    d  .group	00000000 .group
00000000 l    d  .group	00000000 .group
00000000 l    d  .group	00000000 .group
00000000 l    d  .group	00000000 .group
00000000 l    d  .group	00000000 .group
00000000 l    d  .group	00000000 .group
00000000 l    d  .group	00000000 .group
00000000 l    d  .group	00000000 .group
00000000 l    d  .group	00000000 .group
00000000 l    d  .group	00000000 .group
00000000 l    d  .group	00000000 .group
00000000 l    d  .group	00000000 .group
00000000  w    F .gnu.linkonce.t._ZSt8_DestroyIPPN9__gnu_cxx15_Hashtable_nodeISt4pairIKPKciEEESaIS8_EEvT_SB_T0_	00000019 _ZSt8_DestroyIPPN9__gnu_cxx15_Hashtable_nodeISt4pairIKPKciEEESaIS8_EEvT_SB_T0_
00000000  w    F .gnu.linkonce.t._ZSt6fill_nIPPN9__gnu_cxx15_Hashtable_nodeISt4pairIKPKciEEEjS8_ET_SA_T0_RKT1_	00000024 _ZSt6fill_nIPPN9__gnu_cxx15_Hashtable_nodeISt4pairIKPKciEEEjS8_ET_SA_T0_RKT1_
00000000  w    F .gnu.linkonce.t._ZSt24__uninitialized_fill_n_aIPPN9__gnu_cxx15_Hashtable_nodeISt4pairIKPKciEEEjS8_S8_EvT_T0_RKT1_SaIT2_E	00000009 _ZSt24__uninitialized_fill_n_aIPPN9__gnu_cxx15_Hashtable_nodeISt4pairIKPKciEEEjS8_S8_EvT_T0_RKT1_SaIT2_E
00000000         *UND*	00000000 _ZNSt8ios_base4InitD1Ev
00000000         *UND*	00000000 _ZNSt8ios_base4InitC1Ev
00000000         *UND*	00000000 __dso_handle
00000000         *UND*	00000000 __cxa_atexit
00000000  w    F .gnu.linkonce.t._ZSt4fillIN9__gnu_cxx17__normal_iteratorIPPNS0_15_Hashtable_nodeISt4pairIKPKciEEESt6vectorIS9_SaIS9_EEEES9_EvT_SF_RKT0_	0000001d _ZSt4fillIN9__gnu_cxx17__normal_iteratorIPPNS0_15_Hashtable_nodeISt4pairIKPKciEEESt6vectorIS9_SaIS9_EEEES9_EvT_SF_RKT0_
00000000  w    F .gnu.linkonce.t._ZSt6fill_nIN9__gnu_cxx17__normal_iteratorIPPNS0_15_Hashtable_nodeISt4pairIKPKciEEESt6vectorIS9_SaIS9_EEEEjS9_ET_SF_T0_RKT1_	00000034 _ZSt6fill_nIN9__gnu_cxx17__normal_iteratorIPPNS0_15_Hashtable_nodeISt4pairIKPKciEEESt6vectorIS9_SaIS9_EEEEjS9_ET_SF_T0_RKT1_
00000000  w    F .gnu.linkonce.t._ZSt24__uninitialized_fill_n_aIN9__gnu_cxx17__normal_iteratorIPPNS0_15_Hashtable_nodeISt4pairIKPKciEEESt6vectorIS9_SaIS9_EEEEjS9_S9_EvT_T0_RKT1_SaIT2_E	0000001f _ZSt24__uninitialized_fill_n_aIN9__gnu_cxx17__normal_iteratorIPPNS0_15_Hashtable_nodeISt4pairIKPKciEEESt6vectorIS9_SaIS9_EEEEjS9_S9_EvT_T0_RKT1_SaIT2_E
00000000  w    F .gnu.linkonce.t._ZSt8_DestroyIN9__gnu_cxx17__normal_iteratorIPPNS0_15_Hashtable_nodeISt4pairIKPKciEEESt6vectorIS9_SaIS9_EEEESC_EvT_SF_T0_	00000019 _ZSt8_DestroyIN9__gnu_cxx17__normal_iteratorIPPNS0_15_Hashtable_nodeISt4pairIKPKciEEESt6vectorIS9_SaIS9_EEEESC_EvT_SF_T0_
00000000  w    F .gnu.linkonce.t._ZSt11lower_boundIPKmmET_S2_S2_RKT0_	00000043 _ZSt11lower_boundIPKmmET_S2_S2_RKT0_
00000000  w    F .gnu.linkonce.t._ZN9__gnu_cxx19_Hashtable_iteratorISt4pairIKPKciES3_NS_4hashIPcEESt10_Select1stIS5_EN4BEEV5eqstrESaIiEEppEv	0000008b _ZN9__gnu_cxx19_Hashtable_iteratorISt4pairIKPKciES3_NS_4hashIPcEESt10_Select1stIS5_EN4BEEV5eqstrESaIiEEppEv
00000000  w    F .gnu.linkonce.t._ZN9__gnu_cxx9hashtableISt4pairIKPKciES3_NS_4hashIPcEESt10_Select1stIS5_EN4BEEV5eqstrESaIiEE5clearEv	00000088 _ZN9__gnu_cxx9hashtableISt4pairIKPKciES3_NS_4hashIPcEESt10_Select1stIS5_EN4BEEV5eqstrESaIiEE5clearEv
00000000         *UND*	00000000 _ZdlPv
00000060 g     F .text	000000a5 _ZN4BEEVlsERSoRKNS_6SpacerE
00000000         *UND*	00000000 _ZStlsISt11char_traitsIcEERSt13basic_ostreamIcT_ES5_PKc
00000000         *UND*	00000000 _ZNSolsEm
00000000         *UND*	00000000 _ZNSolsEl
00000000         *UND*	00000000 _Unwind_Resume
00000000  w    F .gnu.linkonce.t._ZN9__gnu_cxx9hashtableISt4pairIKPKciES3_NS_4hashIPcEESt10_Select1stIS5_EN4BEEV5eqstrESaIiEE6resizeEj	000001a6 _ZN9__gnu_cxx9hashtableISt4pairIKPKciES3_NS_4hashIPcEESt10_Select1stIS5_EN4BEEV5eqstrESaIiEE6resizeEj
00000000         *UND*	00000000 _Znwj
00000000         *UND*	00000000 _ZSt17__throw_bad_allocv
00000000  w    F .gnu.linkonce.t._ZN9__gnu_cxx9hashtableISt4pairIKPKciES3_NS_4hashIPcEESt10_Select1stIS5_EN4BEEV5eqstrESaIiEE14find_or_insertERKS5_	000000d2 _ZN9__gnu_cxx9hashtableISt4pairIKPKciES3_NS_4hashIPcEESt10_Select1stIS5_EN4BEEV5eqstrESaIiEE14find_or_insertERKS5_
00000000         *UND*	00000000 strcmp
00000000  w    F .gnu.linkonce.t._ZNSt6vectorIPN9__gnu_cxx15_Hashtable_nodeISt4pairIKPKciEEESaIS8_EE14_M_fill_insertENS0_17__normal_iteratorIPS8_SA_EEjRKS8_	00000206 _ZNSt6vectorIPN9__gnu_cxx15_Hashtable_nodeISt4pairIKPKciEEESaIS8_EE14_M_fill_insertENS0_17__normal_iteratorIPS8_SA_EEjRKS8_
00000000         *UND*	00000000 memmove
00000000         *UND*	00000000 _ZSt20__throw_length_errorPKc
00000000  w    F .gnu.linkonce.t._ZNSt6vectorIPN9__gnu_cxx15_Hashtable_nodeISt4pairIKPKciEEESaIS8_EE7reserveEj	000000bd _ZNSt6vectorIPN9__gnu_cxx15_Hashtable_nodeISt4pairIKPKciEEESaIS8_EE7reserveEj
00000160 g     F .text	00000256 _ZN4BEEV16CountersAndStatsEPKc
00000000         *UND*	00000000 _ZN4BEEV5statsE
00000000         *UND*	00000000 _ZSt4cout
00000000         *UND*	00000000 _ZSt4endlIcSt11char_traitsIcEERSt13basic_ostreamIT_T0_ES6_
00000000         *UND*	00000000 __cxa_guard_acquire
00000000         *UND*	00000000 __cxa_guard_release
00000000         *UND*	00000000 __cxa_guard_abort
00000000         *UND*	00000000 __gxx_personality_v0



BitBlast.o:     file format elf32-i386

SYMBOL TABLE:
00000000 l    df *ABS*	00000000 BitBlast.cpp
00000000 l    d  .text	00000000 .text
00000000 l    d  .data	00000000 .data
00000000 l    d  .bss	00000000 .bss
00000000 l    d  .ctors	00000000 .ctors
000000d0 l     F .text	00000013 _GLOBAL__I__ZN4BEEV7ASTJunkE
00000004 l     O .bss	00000004 _ZN7MINISAT9lit_ErrorE
00000008 l     O .bss	00000004 _ZN7MINISAT9lit_UndefE
0000000c l     O .bss	00000004 _ZN7MINISAT7l_UndefE
00000010 l     O .bss	00000004 _ZN7MINISAT7l_FalseE
00000014 l     O .bss	00000004 _ZN7MINISAT6l_TrueE
00000018 l     O .bss	00000001 _ZSt8__ioinit
00000000 l    d  .rodata	00000000 .rodata
00000000 l     O .rodata	00000070 _ZN9__gnu_cxx16__stl_prime_listE
00000000 l    d  .gnu.linkonce.t._ZSt8_DestroyIPPN9__gnu_cxx15_Hashtable_nodeISt4pairIKN4BEEV7ASTNodeES4_EEESaIS8_EEvT_SB_T0_	00000000 .gnu.linkonce.t._ZSt8_DestroyIPPN9__gnu_cxx15_Hashtable_nodeISt4pairIKN4BEEV7ASTNodeES4_EEESaIS8_EEvT_SB_T0_
00000000 l    d  .gnu.linkonce.t._ZSt6fill_nIPPN9__gnu_cxx15_Hashtable_nodeISt4pairIKN4BEEV7ASTNodeES4_EEEjS8_ET_SA_T0_RKT1_	00000000 .gnu.linkonce.t._ZSt6fill_nIPPN9__gnu_cxx15_Hashtable_nodeISt4pairIKN4BEEV7ASTNodeES4_EEEjS8_ET_SA_T0_RKT1_
00000000 l    d  .gnu.linkonce.t._ZSt24__uninitialized_fill_n_aIPPN9__gnu_cxx15_Hashtable_nodeISt4pairIKN4BEEV7ASTNodeES4_EEEjS8_S8_EvT_T0_RKT1_SaIT2_E	00000000 .gnu.linkonce.t._ZSt24__uninitialized_fill_n_aIPPN9__gnu_cxx15_Hashtable_nodeISt4pairIKN4BEEV7ASTNodeES4_EEEjS8_S8_EvT_T0_RKT1_SaIT2_E
00000000 l     F .text	00000010 __tcf_0
00000010 l     F .text	0000002b __tcf_1
00000000 l    d  .gnu.linkonce.t._ZSt11lower_boundIPKmmET_S2_S2_RKT0_	00000000 .gnu.linkonce.t._ZSt11lower_boundIPKmmET_S2_S2_RKT0_
00000040 l     F .text	0000008e _Z41__static_initialization_and_destruction_0ii
00000000 l    d  .gnu.linkonce.t._ZN9__gnu_cxx9hashtableISt4pairIKN4BEEV7ASTNodeES3_ES3_NS3_13ASTNodeHasherESt10_Select1stIS5_ENS3_12ASTNodeEqualESaIS3_EE6resizeEj	00000000 .gnu.linkonce.t._ZN9__gnu_cxx9hashtableISt4pairIKN4BEEV7ASTNodeES3_ES3_NS3_13ASTNodeHasherESt10_Select1stIS5_ENS3_12ASTNodeEqualESaIS3_EE6resizeEj
00000000 l    d  .gcc_except_table	00000000 .gcc_except_table
00000000 l    d  .gnu.linkonce.t._ZSt26__uninitialized_fill_n_auxIPN4BEEV7ASTNodeEjS1_EvT_T0_RKT1_12__false_type	00000000 .gnu.linkonce.t._ZSt26__uninitialized_fill_n_auxIPN4BEEV7ASTNodeEjS1_EvT_T0_RKT1_12__false_type
00000000 l    d  .gnu.linkonce.t._ZSt24__uninitialized_fill_n_aIPN4BEEV7ASTNodeEjS1_S1_EvT_T0_RKT1_SaIT2_E	00000000 .gnu.linkonce.t._ZSt24__uninitialized_fill_n_aIPN4BEEV7ASTNodeEjS1_S1_EvT_T0_RKT1_SaIT2_E
00000000 l    d  .gnu.linkonce.t._ZSt8_DestroyIPN4BEEV7ASTNodeESaIS1_EEvT_S4_T0_	00000000 .gnu.linkonce.t._ZSt8_DestroyIPN4BEEV7ASTNodeESaIS1_EEvT_S4_T0_
00000000 l    d  .gnu.linkonce.t._ZN9__gnu_cxx9hashtableISt4pairIKN4BEEV7ASTNodeES3_ES3_NS3_13ASTNodeHasherESt10_Select1stIS5_ENS3_12ASTNodeEqualESaIS3_EE14find_or_insertERKS5_	00000000 .gnu.linkonce.t._ZN9__gnu_cxx9hashtableISt4pairIKN4BEEV7ASTNodeES3_ES3_NS3_13ASTNodeHasherESt10_Select1stIS5_ENS3_12ASTNodeEqualESaIS3_EE14find_or_insertERKS5_
00000000 l    d  .gnu.linkonce.t._ZSt8_DestroyIN9__gnu_cxx17__normal_iteratorIPN4BEEV7ASTNodeESt6vectorIS3_SaIS3_EEEES6_EvT_S9_T0_	00000000 .gnu.linkonce.t._ZSt8_DestroyIN9__gnu_cxx17__normal_iteratorIPN4BEEV7ASTNodeESt6vectorIS3_SaIS3_EEEES6_EvT_S9_T0_
00000000 l    d  .rodata.str1.1	00000000 .rodata.str1.1
00000000 l    d  .gnu.linkonce.t._ZNSt6vectorIN4BEEV7ASTNodeESaIS1_EE15_M_range_insertIN9__gnu_cxx17__normal_iteratorIPKS1_S3_EEEEvNS6_IPS1_S3_EET_SC_St20forward_iterator_tag	00000000 .gnu.linkonce.t._ZNSt6vectorIN4BEEV7ASTNodeESaIS1_EE15_M_range_insertIN9__gnu_cxx17__normal_iteratorIPKS1_S3_EEEEvNS6_IPS1_S3_EET_SC_St20forward_iterator_tag
00000000 l    d  .gnu.linkonce.t._ZNSt6vectorIN4BEEV7ASTNodeESaIS1_EEaSERKS3_	00000000 .gnu.linkonce.t._ZNSt6vectorIN4BEEV7ASTNodeESaIS1_EEaSERKS3_
00000000 l    d  .gnu.linkonce.t._ZNSt6vectorIN4BEEV7ASTNodeESaIS1_EEC1ERKS3_	00000000 .gnu.linkonce.t._ZNSt6vectorIN4BEEV7ASTNodeESaIS1_EEC1ERKS3_
00000000 l    d  .gnu.linkonce.t._ZNSt6vectorIN4BEEV7ASTNodeESaIS1_EEC1Ej	00000000 .gnu.linkonce.t._ZNSt6vectorIN4BEEV7ASTNodeESaIS1_EEC1Ej
00000000 l    d  .gnu.linkonce.t._ZNSt6vectorIN4BEEV7ASTNodeESaIS1_EED1Ev	00000000 .gnu.linkonce.t._ZNSt6vectorIN4BEEV7ASTNodeESaIS1_EED1Ev
00000000 l    d  .gnu.linkonce.t._ZNSt6vectorIN4BEEV7ASTNodeESaIS1_EE13_M_insert_auxEN9__gnu_cxx17__normal_iteratorIPS1_S3_EERKS1_	00000000 .gnu.linkonce.t._ZNSt6vectorIN4BEEV7ASTNodeESaIS1_EE13_M_insert_auxEN9__gnu_cxx17__normal_iteratorIPS1_S3_EERKS1_
00000000 l    d  .rodata.str1.4	00000000 .rodata.str1.4
00000000 l    d  .eh_frame	00000000 .eh_frame
00000000 l    d  .note.GNU-stack	00000000 .note.GNU-stack
00000000 l    d  .comment	00000000 .comment
00000000 l    d  .group	00000000 .group
00000000 l    d  .group	00000000 .group
00000000 l    d  .group	00000000 .group
00000000 l    d  .group	00000000 .group
00000000 l    d  .group	00000000 .group
00000000 l    d  .group	00000000 .group
00000000 l    d  .group	00000000 .group
00000000 l    d  .group	00000000 .group
00000000 l    d  .group	00000000 .group
00000000 l    d  .group	00000000 .group
00000000 l    d  .group	00000000 .group
00000000 l    d  .group	00000000 .group
00000000 l    d  .group	00000000 .group
00000000 l    d  .group	00000000 .group
00000000 l    d  .group	00000000 .group
00000000 l    d  .group	00000000 .group
00000000 g     O .bss	00000004 _ZN4BEEV7ASTJunkE
00000000  w    F .gnu.linkonce.t._ZSt8_DestroyIPPN9__gnu_cxx15_Hashtable_nodeISt4pairIKN4BEEV7ASTNodeES4_EEESaIS8_EEvT_SB_T0_	00000019 _ZSt8_DestroyIPPN9__gnu_cxx15_Hashtable_nodeISt4pairIKN4BEEV7ASTNodeES4_EEESaIS8_EEvT_SB_T0_
00000000  w    F .gnu.linkonce.t._ZSt6fill_nIPPN9__gnu_cxx15_Hashtable_nodeISt4pairIKN4BEEV7ASTNodeES4_EEEjS8_ET_SA_T0_RKT1_	00000024 _ZSt6fill_nIPPN9__gnu_cxx15_Hashtable_nodeISt4pairIKN4BEEV7ASTNodeES4_EEEjS8_ET_SA_T0_RKT1_
00000000  w    F .gnu.linkonce.t._ZSt24__uninitialized_fill_n_aIPPN9__gnu_cxx15_Hashtable_nodeISt4pairIKN4BEEV7ASTNodeES4_EEEjS8_S8_EvT_T0_RKT1_SaIT2_E	00000009 _ZSt24__uninitialized_fill_n_aIPPN9__gnu_cxx15_Hashtable_nodeISt4pairIKN4BEEV7ASTNodeES4_EEEjS8_S8_EvT_T0_RKT1_SaIT2_E
00000000         *UND*	00000000 _ZNSt8ios_base4InitD1Ev
00000000  w    F .gnu.linkonce.t._ZSt11lower_boundIPKmmET_S2_S2_RKT0_	00000043 _ZSt11lower_boundIPKmmET_S2_S2_RKT0_
00000000         *UND*	00000000 _ZNSt8ios_base4InitC1Ev
00000000         *UND*	00000000 __dso_handle
00000000         *UND*	00000000 __cxa_atexit
000000f0 g     F .text	000000c5 _ZN4BEEV7BeevMgr8BBLShiftERSt6vectorINS_7ASTNodeESaIS2_EE
000001c0 g     F .text	000000ae _ZN4BEEV7BeevMgr8BBRShiftERSt6vectorINS_7ASTNodeESaIS2_EE
00000000         *UND*	00000000 _Unwind_Resume
00000000  w    F .gnu.linkonce.t._ZN9__gnu_cxx9hashtableISt4pairIKN4BEEV7ASTNodeES3_ES3_NS3_13ASTNodeHasherESt10_Select1stIS5_ENS3_12ASTNodeEqualESaIS3_EE6resizeEj	00000187 _ZN9__gnu_cxx9hashtableISt4pairIKN4BEEV7ASTNodeES3_ES3_NS3_13ASTNodeHasherESt10_Select1stIS5_ENS3_12ASTNodeEqualESaIS3_EE6resizeEj
00000000         *UND*	00000000 _Znwj
00000000         *UND*	00000000 _ZdlPv
00000000         *UND*	00000000 _ZSt17__throw_bad_allocv
00000000  w    F .gnu.linkonce.t._ZSt26__uninitialized_fill_n_auxIPN4BEEV7ASTNodeEjS1_EvT_T0_RKT1_12__false_type	00000093 _ZSt26__uninitialized_fill_n_auxIPN4BEEV7ASTNodeEjS1_EvT_T0_RKT1_12__false_type
00000000         *UND*	00000000 _ZN4BEEV7ASTNodeC1ERKS0_
00000000         *UND*	00000000 __cxa_begin_catch
00000000         *UND*	00000000 __cxa_rethrow
00000000         *UND*	00000000 __cxa_end_catch
00000000  w    F .gnu.linkonce.t._ZSt24__uninitialized_fill_n_aIPN4BEEV7ASTNodeEjS1_S1_EvT_T0_RKT1_SaIT2_E	0000000c _ZSt24__uninitialized_fill_n_aIPN4BEEV7ASTNodeEjS1_S1_EvT_T0_RKT1_SaIT2_E
00000000  w    F .gnu.linkonce.t._ZSt8_DestroyIPN4BEEV7ASTNodeESaIS1_EEvT_S4_T0_	00000047 _ZSt8_DestroyIPN4BEEV7ASTNodeESaIS1_EEvT_S4_T0_
00000000  w    F .gnu.linkonce.t._ZN9__gnu_cxx9hashtableISt4pairIKN4BEEV7ASTNodeES3_ES3_NS3_13ASTNodeHasherESt10_Select1stIS5_ENS3_12ASTNodeEqualESaIS3_EE14find_or_insertERKS5_	00000115 _ZN9__gnu_cxx9hashtableISt4pairIKN4BEEV7ASTNodeES3_ES3_NS3_13ASTNodeHasherESt10_Select1stIS5_ENS3_12ASTNodeEqualESaIS3_EE14find_or_insertERKS5_
00000270 g     F .text	00000573 _ZN4BEEV7BeevMgr8MajorityERKNS_7ASTNodeES3_S3_
00000000         *UND*	00000000 _ZN4BEEV7BeevMgr14CreateSimpFormENS_4KindERKNS_7ASTNodeES4_
00000000         *UND*	00000000 _ZN4BEEV7BeevMgr14CreateSimpFormENS_4KindERKNS_7ASTNodeES4_S4_
000007f0 g     F .text	00000204 _ZN4BEEV7BeevMgr7BBPlus2ERSt6vectorINS_7ASTNodeESaIS2_EERKS4_S2_
00000a00 g     F .text	0000063e _ZN4BEEV7BeevMgr6BBBVLEERKSt6vectorINS_7ASTNodeESaIS2_EES6_b
00000000         *UND*	00000000 _ZN4BEEV7BeevMgr13CreateSimpNotERKNS_7ASTNodeE
00000000  w    F .gnu.linkonce.t._ZSt8_DestroyIN9__gnu_cxx17__normal_iteratorIPN4BEEV7ASTNodeESt6vectorIS3_SaIS3_EEEES6_EvT_S9_T0_	00000047 _ZSt8_DestroyIN9__gnu_cxx17__normal_iteratorIPN4BEEV7ASTNodeESt6vectorIS3_SaIS3_EEEES6_EvT_S9_T0_
00000000  w    F .gnu.linkonce.t._ZNSt6vectorIN4BEEV7ASTNodeESaIS1_EE15_M_range_insertIN9__gnu_cxx17__normal_iteratorIPKS1_S3_EEEEvNS6_IPS1_S3_EET_SC_St20forward_iterator_tag	000005fb _ZNSt6vectorIN4BEEV7ASTNodeESaIS1_EE15_M_range_insertIN9__gnu_cxx17__normal_iteratorIPKS1_S3_EEEEvNS6_IPS1_S3_EET_SC_St20forward_iterator_tag
00000000         *UND*	00000000 _ZSt20__throw_length_errorPKc
00000000  w    F .gnu.linkonce.t._ZNSt6vectorIN4BEEV7ASTNodeESaIS1_EEaSERKS3_	0000030c _ZNSt6vectorIN4BEEV7ASTNodeESaIS1_EEaSERKS3_
00000000  w    F .gnu.linkonce.t._ZNSt6vectorIN4BEEV7ASTNodeESaIS1_EEC1ERKS3_	0000011c _ZNSt6vectorIN4BEEV7ASTNodeESaIS1_EEC1ERKS3_
00000000  w    F .gnu.linkonce.t._ZNSt6vectorIN4BEEV7ASTNodeESaIS1_EEC1Ej	000000eb _ZNSt6vectorIN4BEEV7ASTNodeESaIS1_EEC1Ej
00000000  w    F .gnu.linkonce.t._ZNSt6vectorIN4BEEV7ASTNodeESaIS1_EED1Ev	00000054 _ZNSt6vectorIN4BEEV7ASTNodeESaIS1_EED1Ev
00000000  w    F .gnu.linkonce.t._ZNSt6vectorIN4BEEV7ASTNodeESaIS1_EE13_M_insert_auxEN9__gnu_cxx17__normal_iteratorIPS1_S3_EERKS1_	0000036e _ZNSt6vectorIN4BEEV7ASTNodeESaIS1_EE13_M_insert_auxEN9__gnu_cxx17__normal_iteratorIPS1_S3_EERKS1_
00001040 g     F .text	000001a5 _ZN4BEEV7BeevMgr11BBAddOneBitERSt6vectorINS_7ASTNodeESaIS2_EES2_
000011f0 g     F .text	00000091 _ZN4BEEV7BeevMgr5BBIncERSt6vectorINS_7ASTNodeESaIS2_EE
00001290 g     F .text	00000105 _ZN4BEEV7BeevMgr5BBNegERKSt6vectorINS_7ASTNodeESaIS2_EE
000013a0 g     F .text	000000ee _ZN4BEEV7BeevMgr5BBSubERSt6vectorINS_7ASTNodeESaIS2_EERKS4_
00001490 g     F .text	0000009a _ZN4BEEV7BeevMgr8BBUminusERKSt6vectorINS_7ASTNodeESaIS2_EE
00001530 g     F .text	000002c4 _ZN4BEEV7BeevMgr5BBITEERKNS_7ASTNodeERKSt6vectorIS1_SaIS1_EES8_
00001800 g     F .text	000001ee _ZN4BEEV7BeevMgr8BBAndBitERKSt6vectorINS_7ASTNodeESaIS2_EES2_
000019f0 g     F .text	0000034d _ZN4BEEV7BeevMgr6BBMultERKSt6vectorINS_7ASTNodeESaIS2_EES6_
00001d40 g     F .text	00000094 _ZN4BEEV7BeevMgr6BBfillEjNS_7ASTNodeE
00001de0 g     F .text	000002bb _ZN4BEEV7BeevMgr4BBEQERKSt6vectorINS_7ASTNodeESaIS2_EES6_
00000000         *UND*	00000000 _ZN4BEEV7BeevMgr14CreateSimpFormENS_4KindERSt6vectorINS_7ASTNodeESaIS3_EE
000020a0 g     F .text	00000939 _ZN4BEEV7BeevMgr8BBDivModERKSt6vectorINS_7ASTNodeESaIS2_EES6_RS4_S7_j
000029e0 g     F .text	00000f68 _ZN4BEEV7BeevMgr6BBFormERKNS_7ASTNodeE
00000000         *UND*	00000000 _ZN4BEEV16_kind_categoriesE
00000000         *UND*	00000000 _ZN4BEEV10FatalErrorEPKcRKNS_7ASTNodeEi
00000000         *UND*	00000000 _ZN4BEEV7BeevMgr10CreateNodeENS_4KindERKSt6vectorINS_7ASTNodeESaIS3_EE
00003950 g     F .text	000025b1 _ZN4BEEV7BeevMgr6BBTermERKNS_7ASTNodeE
00000000         *UND*	00000000 _ZSt4cerr
00000000         *UND*	00000000 _ZStlsISt11char_traitsIcEERSt13basic_ostreamIcT_ES5_PKc
00000000         *UND*	00000000 _ZSt4endlIcSt11char_traitsIcEERSt13basic_ostreamIT_T0_ES6_
00000000         *UND*	00000000 _ZNK4BEEV7ASTNode9LispPrintERSoi
00005f10 g     F .text	00000385 _ZN4BEEV7BeevMgr9BBcompareERKNS_7ASTNodeE
00000000         *UND*	00000000 _ZN4BEEV10FatalErrorEPKc
00000000         *UND*	00000000 _ZNK4BEEV7ASTNode10GetBVConstEv
00000000         *UND*	00000000 _ZN4BEEV13_empty_ASTVecE
00000000         *UND*	00000000 _ZN4BEEV7BeevMgr10CreateNodeENS_4KindERKNS_7ASTNodeES4_S4_RKSt6vectorIS2_SaIS2_EE
00000000         *UND*	00000000 _ZN4BEEV7BeevMgr13CreateBVConstEjy
00000000         *UND*	00000000 _ZN4BEEV7BeevMgr10CreateNodeENS_4KindERKNS_7ASTNodeES4_RKSt6vectorIS2_SaIS2_EE
00000000         *UND*	00000000 BitVector_bit_test
00000000         *UND*	00000000 __gxx_personality_v0



SimpBool.o:     file format elf32-i386

SYMBOL TABLE:
00000000 l    df *ABS*	00000000 SimpBool.cpp
00000000 l    d  .text	00000000 .text
00000000 l    d  .data	00000000 .data
00000000 l    d  .bss	00000000 .bss
00000000 l    d  .ctors	00000000 .ctors
00000080 l     F .text	00000010 _GLOBAL__I__ZN4BEEV7BeevMgr14CreateSimpFormENS_4KindERSt6vectorINS_7ASTNodeESaIS3_EE
00000000 l     O .bss	00000004 _ZN7MINISAT9lit_ErrorE
00000004 l     O .bss	00000004 _ZN7MINISAT9lit_UndefE
00000008 l     O .bss	00000004 _ZN7MINISAT7l_UndefE
0000000c l     O .bss	00000004 _ZN7MINISAT7l_FalseE
00000010 l     O .bss	00000004 _ZN7MINISAT6l_TrueE
00000014 l     O .bss	00000001 _ZSt8__ioinit
00000015 l     O .bss	00000001 _trace_simpbool
00000016 l     O .bss	00000001 _disable_simpbool
00000000 l     F .text	00000010 __tcf_0
00000010 l     F .text	00000070 _Z41__static_initialization_and_destruction_0ii
00000000 l    d  .gnu.linkonce.t._ZSt8_DestroyIN9__gnu_cxx17__normal_iteratorIPN4BEEV7ASTNodeESt6vectorIS3_SaIS3_EEEES6_EvT_S9_T0_	00000000 .gnu.linkonce.t._ZSt8_DestroyIN9__gnu_cxx17__normal_iteratorIPN4BEEV7ASTNodeESt6vectorIS3_SaIS3_EEEES6_EvT_S9_T0_
00000000 l    d  .gnu.linkonce.t._ZSt8_DestroyIPN4BEEV7ASTNodeESaIS1_EEvT_S4_T0_	00000000 .gnu.linkonce.t._ZSt8_DestroyIPN4BEEV7ASTNodeESaIS1_EEvT_S4_T0_
00000000 l    d  .rodata.str1.1	00000000 .rodata.str1.1
00000000 l    d  .gnu.linkonce.t._ZNSt6vectorIN4BEEV7ASTNodeESaIS1_EE15_M_range_insertIN9__gnu_cxx17__normal_iteratorIPKS1_S3_EEEEvNS6_IPS1_S3_EET_SC_St20forward_iterator_tag	00000000 .gnu.linkonce.t._ZNSt6vectorIN4BEEV7ASTNodeESaIS1_EE15_M_range_insertIN9__gnu_cxx17__normal_iteratorIPKS1_S3_EEEEvNS6_IPS1_S3_EET_SC_St20forward_iterator_tag
00000000 l    d  .gcc_except_table	00000000 .gcc_except_table
00000000 l    d  .gnu.linkonce.t._ZNSt6vectorIN4BEEV7ASTNodeESaIS1_EE13_M_insert_auxEN9__gnu_cxx17__normal_iteratorIPS1_S3_EERKS1_	00000000 .gnu.linkonce.t._ZNSt6vectorIN4BEEV7ASTNodeESaIS1_EE13_M_insert_auxEN9__gnu_cxx17__normal_iteratorIPS1_S3_EERKS1_
00000000 l    d  .gnu.linkonce.t._ZNSt6vectorIN4BEEV7ASTNodeESaIS1_EEaSERKS3_	00000000 .gnu.linkonce.t._ZNSt6vectorIN4BEEV7ASTNodeESaIS1_EEaSERKS3_
00000000 l    d  .rodata	00000000 .rodata
00000000 l    d  .eh_frame	00000000 .eh_frame
00000000 l    d  .note.GNU-stack	00000000 .note.GNU-stack
00000000 l    d  .comment	00000000 .comment
00000000 l    d  .group	00000000 .group
00000000 l    d  .group	00000000 .group
00000000 l    d  .group	00000000 .group
00000000 l    d  .group	00000000 .group
00000000 l    d  .group	00000000 .group
00000000         *UND*	00000000 _ZNSt8ios_base4InitD1Ev
00000000         *UND*	00000000 _ZNSt8ios_base4InitC1Ev
00000000         *UND*	00000000 __dso_handle
00000000         *UND*	00000000 __cxa_atexit
00000000  w    F .gnu.linkonce.t._ZSt8_DestroyIN9__gnu_cxx17__normal_iteratorIPN4BEEV7ASTNodeESt6vectorIS3_SaIS3_EEEES6_EvT_S9_T0_	00000047 _ZSt8_DestroyIN9__gnu_cxx17__normal_iteratorIPN4BEEV7ASTNodeESt6vectorIS3_SaIS3_EEEES6_EvT_S9_T0_
00000000  w    F .gnu.linkonce.t._ZSt8_DestroyIPN4BEEV7ASTNodeESaIS1_EEvT_S4_T0_	00000047 _ZSt8_DestroyIPN4BEEV7ASTNodeESaIS1_EEvT_S4_T0_
00000000         *UND*	00000000 _Unwind_Resume
00000000  w    F .gnu.linkonce.t._ZNSt6vectorIN4BEEV7ASTNodeESaIS1_EE15_M_range_insertIN9__gnu_cxx17__normal_iteratorIPKS1_S3_EEEEvNS6_IPS1_S3_EET_SC_St20forward_iterator_tag	000005fb _ZNSt6vectorIN4BEEV7ASTNodeESaIS1_EE15_M_range_insertIN9__gnu_cxx17__normal_iteratorIPKS1_S3_EEEEvNS6_IPS1_S3_EET_SC_St20forward_iterator_tag
00000000         *UND*	00000000 _Znwj
00000000         *UND*	00000000 _ZN4BEEV7ASTNodeC1ERKS0_
00000000         *UND*	00000000 _ZdlPv
00000000         *UND*	00000000 _ZSt17__throw_bad_allocv
00000000         *UND*	00000000 _ZSt20__throw_length_errorPKc
00000000         *UND*	00000000 __cxa_begin_catch
00000000         *UND*	00000000 __cxa_rethrow
00000000         *UND*	00000000 __cxa_end_catch
00000000  w    F .gnu.linkonce.t._ZNSt6vectorIN4BEEV7ASTNodeESaIS1_EE13_M_insert_auxEN9__gnu_cxx17__normal_iteratorIPS1_S3_EERKS1_	0000036e _ZNSt6vectorIN4BEEV7ASTNodeESaIS1_EE13_M_insert_auxEN9__gnu_cxx17__normal_iteratorIPS1_S3_EERKS1_
00000000  w    F .gnu.linkonce.t._ZNSt6vectorIN4BEEV7ASTNodeESaIS1_EEaSERKS3_	0000030c _ZNSt6vectorIN4BEEV7ASTNodeESaIS1_EEaSERKS3_
00000090 g     F .text	000001c9 _ZN4BEEV11FlattenKindENS_4KindERSt6vectorINS_7ASTNodeESaIS2_EE
00000000         *UND*	00000000 _ZSt4cout
00000000         *UND*	00000000 _ZStlsISt11char_traitsIcEERSt13basic_ostreamIcT_ES5_PKc
00000000         *UND*	00000000 _ZSt4endlIcSt11char_traitsIcEERSt13basic_ostreamIT_T0_ES6_
00000000         *UND*	00000000 _ZN4BEEV11_kind_namesE
00000000         *UND*	00000000 _ZN4BEEV5lpvecERKSt6vectorINS_7ASTNodeESaIS1_EE
00000260 g     F .text	00000849 _ZN4BEEV7BeevMgr15CreateSimpAndOrEbRSt6vectorINS_7ASTNodeESaIS2_EE
00000000         *UND*	00000000 _ZN4BEEV11xor_flattenE
00000000         *UND*	00000000 _ZN4BEEV13SortByExprNumERSt6vectorINS_7ASTNodeESaIS1_EE
00000000         *UND*	00000000 _ZN4BEEV7BeevMgr10CreateNodeENS_4KindERKSt6vectorINS_7ASTNodeESaIS3_EE
00000000         *UND*	00000000 _ZNK4BEEV7ASTNode9LispPrintERSoi
00000ab0 g     F .text	000000f2 _ZN4BEEV7BeevMgr15CreateSimpAndOrEbRKNS_7ASTNodeES3_
00000bb0 g     F .text	0000094f _ZN4BEEV7BeevMgr13CreateSimpXorERSt6vectorINS_7ASTNodeESaIS2_EE
000015f0 g     F .text	00000311 _ZN4BEEV7BeevMgr13CreateSimpNotERKNS_7ASTNodeE
00001500 g     F .text	000000e4 _ZN4BEEV7BeevMgr13CreateSimpXorERKNS_7ASTNodeES3_
00000000         *UND*	00000000 _ZN4BEEV13_empty_ASTVecE
00000000         *UND*	00000000 _ZN4BEEV7BeevMgr10CreateNodeENS_4KindERKNS_7ASTNodeERKSt6vectorIS2_SaIS2_EE
00001910 g     F .text	0000084e _ZN4BEEV7BeevMgr17CreateSimpFormITEERKNS_7ASTNodeES3_S3_
00000000         *UND*	00000000 _ZN4BEEV7BeevMgr10CreateNodeENS_4KindERKNS_7ASTNodeES4_S4_RKSt6vectorIS2_SaIS2_EE
00002160 g     F .text	00000202 _ZN4BEEV7BeevMgr14CreateSimpFormENS_4KindERSt6vectorINS_7ASTNodeESaIS3_EE
00002370 g     F .text	00000129 _ZN4BEEV7BeevMgr14CreateSimpFormENS_4KindERKNS_7ASTNodeES4_S4_
000024a0 g     F .text	000000e7 _ZN4BEEV7BeevMgr14CreateSimpFormENS_4KindERKNS_7ASTNodeES4_
00002590 g     F .text	000000b3 _ZN4BEEV7BeevMgr14CreateSimpFormENS_4KindERKNS_7ASTNodeE
00000000         *UND*	00000000 __gxx_personality_v0



ToCNF.o:     file format elf32-i386

SYMBOL TABLE:
00000000 l    df *ABS*	00000000 ToCNF.cpp
00000000 l    d  .text	00000000 .text
00000000 l    d  .data	00000000 .data
00000000 l    d  .bss	00000000 .bss
00000000 l    d  .ctors	00000000 .ctors
00000080 l     F .text	00000010 _GLOBAL__I__ZN4BEEV7BeevMgr15PrintClauseListERSoRSt6vectorIPS2_INS_7ASTNodeESaIS3_EESaIS6_EE
00000000 l     O .bss	00000004 _ZN7MINISAT9lit_ErrorE
00000004 l     O .bss	00000004 _ZN7MINISAT9lit_UndefE
00000008 l     O .bss	00000004 _ZN7MINISAT7l_UndefE
0000000c l     O .bss	00000004 _ZN7MINISAT7l_FalseE
00000010 l     O .bss	00000004 _ZN7MINISAT6l_TrueE
00000014 l     O .bss	00000001 _ZSt8__ioinit
00000000 l    d  .rodata	00000000 .rodata
00000000 l     O .rodata	00000070 _ZN9__gnu_cxx16__stl_prime_listE
00000015 l     O .bss	00000001 CNF_trace
00000000 l    d  .gnu.linkonce.t._ZSt8_DestroyIPPN9__gnu_cxx15_Hashtable_nodeISt4pairIKN4BEEV7ASTNodeES4_EEESaIS8_EEvT_SB_T0_	00000000 .gnu.linkonce.t._ZSt8_DestroyIPPN9__gnu_cxx15_Hashtable_nodeISt4pairIKN4BEEV7ASTNodeES4_EEESaIS8_EEvT_SB_T0_
00000000 l    d  .gnu.linkonce.t._ZSt6fill_nIPPN9__gnu_cxx15_Hashtable_nodeISt4pairIKN4BEEV7ASTNodeES4_EEEjS8_ET_SA_T0_RKT1_	00000000 .gnu.linkonce.t._ZSt6fill_nIPPN9__gnu_cxx15_Hashtable_nodeISt4pairIKN4BEEV7ASTNodeES4_EEEjS8_ET_SA_T0_RKT1_
00000000 l    d  .gnu.linkonce.t._ZSt24__uninitialized_fill_n_aIPPN9__gnu_cxx15_Hashtable_nodeISt4pairIKN4BEEV7ASTNodeES4_EEEjS8_S8_EvT_T0_RKT1_SaIT2_E	00000000 .gnu.linkonce.t._ZSt24__uninitialized_fill_n_aIPPN9__gnu_cxx15_Hashtable_nodeISt4pairIKN4BEEV7ASTNodeES4_EEEjS8_S8_EvT_T0_RKT1_SaIT2_E
00000000 l     F .text	00000010 __tcf_0
00000000 l    d  .gnu.linkonce.t._ZSt4fillIN9__gnu_cxx17__normal_iteratorIPPNS0_15_Hashtable_nodeISt4pairIKN4BEEV7ASTNodeES5_EEESt6vectorIS9_SaIS9_EEEES9_EvT_SF_RKT0_	00000000 .gnu.linkonce.t._ZSt4fillIN9__gnu_cxx17__normal_iteratorIPPNS0_15_Hashtable_nodeISt4pairIKN4BEEV7ASTNodeES5_EEESt6vectorIS9_SaIS9_EEEES9_EvT_SF_RKT0_
00000000 l    d  .gnu.linkonce.t._ZSt6fill_nIN9__gnu_cxx17__normal_iteratorIPPNS0_15_Hashtable_nodeISt4pairIKN4BEEV7ASTNodeES5_EEESt6vectorIS9_SaIS9_EEEEjS9_ET_SF_T0_RKT1_	00000000 .gnu.linkonce.t._ZSt6fill_nIN9__gnu_cxx17__normal_iteratorIPPNS0_15_Hashtable_nodeISt4pairIKN4BEEV7ASTNodeES5_EEESt6vectorIS9_SaIS9_EEEEjS9_ET_SF_T0_RKT1_
00000000 l    d  .gnu.linkonce.t._ZSt24__uninitialized_fill_n_aIN9__gnu_cxx17__normal_iteratorIPPNS0_15_Hashtable_nodeISt4pairIKN4BEEV7ASTNodeES5_EEESt6vectorIS9_SaIS9_EEEEjS9_S9_EvT_T0_RKT1_SaIT2_E	00000000 .gnu.linkonce.t._ZSt24__uninitialized_fill_n_aIN9__gnu_cxx17__normal_iteratorIPPNS0_15_Hashtable_nodeISt4pairIKN4BEEV7ASTNodeES5_EEESt6vectorIS9_SaIS9_EEEEjS9_S9_EvT_T0_RKT1_SaIT2_E
00000000 l    d  .gnu.linkonce.t._ZSt8_DestroyIPPSt6vectorIN4BEEV7ASTNodeESaIS2_EESaIS5_EEvT_S8_T0_	00000000 .gnu.linkonce.t._ZSt8_DestroyIPPSt6vectorIN4BEEV7ASTNodeESaIS2_EESaIS5_EEvT_S8_T0_
00000000 l    d  .gnu.linkonce.t._ZSt8_DestroyIN9__gnu_cxx17__normal_iteratorIPPNS0_15_Hashtable_nodeISt4pairIKN4BEEV7ASTNodeES5_EEESt6vectorIS9_SaIS9_EEEESC_EvT_SF_T0_	00000000 .gnu.linkonce.t._ZSt8_DestroyIN9__gnu_cxx17__normal_iteratorIPPNS0_15_Hashtable_nodeISt4pairIKN4BEEV7ASTNodeES5_EEESt6vectorIS9_SaIS9_EEEESC_EvT_SF_T0_
00000000 l    d  .gnu.linkonce.t._ZSt8_DestroyIN9__gnu_cxx17__normal_iteratorIPPSt6vectorIN4BEEV7ASTNodeESaIS4_EES2_IS7_SaIS7_EEEES9_EvT_SC_T0_	00000000 .gnu.linkonce.t._ZSt8_DestroyIN9__gnu_cxx17__normal_iteratorIPPSt6vectorIN4BEEV7ASTNodeESaIS4_EES2_IS7_SaIS7_EEEES9_EvT_SC_T0_
00000000 l    d  .gnu.linkonce.t._ZSt11lower_boundIPKmmET_S2_S2_RKT0_	00000000 .gnu.linkonce.t._ZSt11lower_boundIPKmmET_S2_S2_RKT0_
00000010 l     F .text	00000070 _Z41__static_initialization_and_destruction_0ii
00000000 l    d  .rodata.str1.1	00000000 .rodata.str1.1
00000000 l    d  .gnu.linkonce.t._ZNSt6vectorIPS_IN4BEEV7ASTNodeESaIS1_EESaIS4_EE13_M_insert_auxEN9__gnu_cxx17__normal_iteratorIPS4_S6_EERKS4_	00000000 .gnu.linkonce.t._ZNSt6vectorIPS_IN4BEEV7ASTNodeESaIS1_EESaIS4_EE13_M_insert_auxEN9__gnu_cxx17__normal_iteratorIPS4_S6_EERKS4_
00000000 l    d  .gnu.linkonce.t._ZSt26__uninitialized_fill_n_auxIPN4BEEV7ASTNodeEjS1_EvT_T0_RKT1_12__false_type	00000000 .gnu.linkonce.t._ZSt26__uninitialized_fill_n_auxIPN4BEEV7ASTNodeEjS1_EvT_T0_RKT1_12__false_type
00000000 l    d  .gcc_except_table	00000000 .gcc_except_table
00000000 l    d  .gnu.linkonce.t._ZSt24__uninitialized_fill_n_aIPN4BEEV7ASTNodeEjS1_S1_EvT_T0_RKT1_SaIT2_E	00000000 .gnu.linkonce.t._ZSt24__uninitialized_fill_n_aIPN4BEEV7ASTNodeEjS1_S1_EvT_T0_RKT1_SaIT2_E
00000000 l    d  .gnu.linkonce.t._ZSt8_DestroyIN9__gnu_cxx17__normal_iteratorIPN4BEEV7ASTNodeESt6vectorIS3_SaIS3_EEEES6_EvT_S9_T0_	00000000 .gnu.linkonce.t._ZSt8_DestroyIN9__gnu_cxx17__normal_iteratorIPN4BEEV7ASTNodeESt6vectorIS3_SaIS3_EEEES6_EvT_S9_T0_
00000000 l    d  .gnu.linkonce.t._ZSt8_DestroyIPN4BEEV7ASTNodeESaIS1_EEvT_S4_T0_	00000000 .gnu.linkonce.t._ZSt8_DestroyIPN4BEEV7ASTNodeESaIS1_EEvT_S4_T0_
00000000 l    d  .gnu.linkonce.t._ZN9__gnu_cxx9hashtableISt4pairIKN4BEEV7ASTNodeES3_ES3_NS3_13ASTNodeHasherESt10_Select1stIS5_ENS3_12ASTNodeEqualESaIS3_EE5clearEv	00000000 .gnu.linkonce.t._ZN9__gnu_cxx9hashtableISt4pairIKN4BEEV7ASTNodeES3_ES3_NS3_13ASTNodeHasherESt10_Select1stIS5_ENS3_12ASTNodeEqualESaIS3_EE5clearEv
00000000 l    d  .rodata.str1.4	00000000 .rodata.str1.4
00000000 l    d  .gnu.linkonce.t._ZNSt6vectorIN4BEEV7ASTNodeESaIS1_EE13_M_insert_auxEN9__gnu_cxx17__normal_iteratorIPS1_S3_EERKS1_	00000000 .gnu.linkonce.t._ZNSt6vectorIN4BEEV7ASTNodeESaIS1_EE13_M_insert_auxEN9__gnu_cxx17__normal_iteratorIPS1_S3_EERKS1_
00000000 l    d  .gnu.linkonce.t._ZNSt6vectorIN4BEEV7ASTNodeESaIS1_EEC1Ej	00000000 .gnu.linkonce.t._ZNSt6vectorIN4BEEV7ASTNodeESaIS1_EEC1Ej
00000000 l    d  .gnu.linkonce.t._ZNSt6vectorIN4BEEV7ASTNodeESaIS1_EEC1ERKS3_	00000000 .gnu.linkonce.t._ZNSt6vectorIN4BEEV7ASTNodeESaIS1_EEC1ERKS3_
00000000 l    d  .gnu.linkonce.t._ZNSt6vectorIPN9__gnu_cxx15_Hashtable_nodeISt4pairIKN4BEEV7ASTNodeES4_EEESaIS8_EE5eraseENS0_17__normal_iteratorIPS8_SA_EESD_	00000000 .gnu.linkonce.t._ZNSt6vectorIPN9__gnu_cxx15_Hashtable_nodeISt4pairIKN4BEEV7ASTNodeES4_EEESaIS8_EE5eraseENS0_17__normal_iteratorIPS8_SA_EESD_
00000000 l    d  .gnu.linkonce.t._ZN9__gnu_cxx9hashtableISt4pairIKN4BEEV7ASTNodeES3_ES3_NS3_13ASTNodeHasherESt10_Select1stIS5_ENS3_12ASTNodeEqualESaIS3_EE6resizeEj	00000000 .gnu.linkonce.t._ZN9__gnu_cxx9hashtableISt4pairIKN4BEEV7ASTNodeES3_ES3_NS3_13ASTNodeHasherESt10_Select1stIS5_ENS3_12ASTNodeEqualESaIS3_EE6resizeEj
00000000 l    d  .gnu.linkonce.t._ZN9__gnu_cxx9hashtableISt4pairIKN4BEEV7ASTNodeES3_ES3_NS3_13ASTNodeHasherESt10_Select1stIS5_ENS3_12ASTNodeEqualESaIS3_EE14find_or_insertERKS5_	00000000 .gnu.linkonce.t._ZN9__gnu_cxx9hashtableISt4pairIKN4BEEV7ASTNodeES3_ES3_NS3_13ASTNodeHasherESt10_Select1stIS5_ENS3_12ASTNodeEqualESaIS3_EE14find_or_insertERKS5_
00000000 l    d  .gnu.linkonce.t._ZNSt6vectorIPN9__gnu_cxx15_Hashtable_nodeISt4pairIKN4BEEV7ASTNodeES4_EEESaIS8_EE14_M_fill_insertENS0_17__normal_iteratorIPS8_SA_EEjRKS8_	00000000 .gnu.linkonce.t._ZNSt6vectorIPN9__gnu_cxx15_Hashtable_nodeISt4pairIKN4BEEV7ASTNodeES4_EEESaIS8_EE14_M_fill_insertENS0_17__normal_iteratorIPS8_SA_EEjRKS8_
00000000 l    d  .gnu.linkonce.t._ZNSt6vectorIPN9__gnu_cxx15_Hashtable_nodeISt4pairIKN4BEEV7ASTNodeES4_EEESaIS8_EE7reserveEj	00000000 .gnu.linkonce.t._ZNSt6vectorIPN9__gnu_cxx15_Hashtable_nodeISt4pairIKN4BEEV7ASTNodeES4_EEESaIS8_EE7reserveEj
00000000 l    d  .gnu.linkonce.t._ZN9__gnu_cxx8hash_mapIN4BEEV7ASTNodeES2_NS2_13ASTNodeHasherENS2_12ASTNodeEqualESaIS2_EEC1Ev	00000000 .gnu.linkonce.t._ZN9__gnu_cxx8hash_mapIN4BEEV7ASTNodeES2_NS2_13ASTNodeHasherENS2_12ASTNodeEqualESaIS2_EEC1Ev
00000000 l    d  .gnu.linkonce.t._ZN4BEEV6CNFMgr12ToCNFPrePassERKNS_7ASTNodeE	00000000 .gnu.linkonce.t._ZN4BEEV6CNFMgr12ToCNFPrePassERKNS_7ASTNodeE
00000000 l    d  .gnu.linkonce.r._ZN4BEEV6CNFMgr12ToCNFPrePassERKNS_7ASTNodeE	00000000 .gnu.linkonce.r._ZN4BEEV6CNFMgr12ToCNFPrePassERKNS_7ASTNodeE
00000000 l    d  .gnu.linkonce.t._ZN9__gnu_cxx9hashtableISt4pairIKN4BEEV7ASTNodeES3_ES3_NS3_13ASTNodeHasherESt10_Select1stIS5_ENS3_12ASTNodeEqualESaIS3_EE12_M_copy_fromERKSB_	00000000 .gnu.linkonce.t._ZN9__gnu_cxx9hashtableISt4pairIKN4BEEV7ASTNodeES3_ES3_NS3_13ASTNodeHasherESt10_Select1stIS5_ENS3_12ASTNodeEqualESaIS3_EE12_M_copy_fromERKSB_
00000000 l    d  .gnu.linkonce.t._ZN4BEEV6CNFMgr9ToCNF_ANDERSt6vectorIPS1_INS_7ASTNodeESaIS2_EESaIS5_EEiRS4_S9_	00000000 .gnu.linkonce.t._ZN4BEEV6CNFMgr9ToCNF_ANDERSt6vectorIPS1_INS_7ASTNodeESaIS2_EESaIS5_EEiRS4_S9_
00000000 l    d  .gnu.linkonce.t._ZN4BEEV6CNFMgr13ToCNF_AndLikeENS_4KindERSt6vectorIPS2_INS_7ASTNodeESaIS3_EESaIS6_EES3_	00000000 .gnu.linkonce.t._ZN4BEEV6CNFMgr13ToCNF_AndLikeENS_4KindERSt6vectorIPS2_INS_7ASTNodeESaIS3_EESaIS6_EES3_
00000000 l    d  .gnu.linkonce.t._ZN4BEEV6CNFMgr9ToCNF_intERSt6vectorIPS1_INS_7ASTNodeESaIS2_EESaIS5_EES2_	00000000 .gnu.linkonce.t._ZN4BEEV6CNFMgr9ToCNF_intERSt6vectorIPS1_INS_7ASTNodeESaIS2_EESaIS5_EES2_
00000000 l    d  .gnu.linkonce.r._ZN4BEEV6CNFMgr9ToCNF_intERSt6vectorIPS1_INS_7ASTNodeESaIS2_EESaIS5_EES2_	00000000 .gnu.linkonce.r._ZN4BEEV6CNFMgr9ToCNF_intERSt6vectorIPS1_INS_7ASTNodeESaIS2_EESaIS5_EES2_
00000000 l    d  .eh_frame	00000000 .eh_frame
00000000 l    d  .note.GNU-stack	00000000 .note.GNU-stack
00000000 l    d  .comment	00000000 .comment
00000000 l    d  .group	00000000 .group
00000000 l    d  .group	00000000 .group
00000000 l    d  .group	00000000 .group
00000000 l    d  .group	00000000 .group
00000000 l    d  .group	00000000 .group
00000000 l    d  .group	00000000 .group
00000000 l    d  .group	00000000 .group
00000000 l    d  .group	00000000 .group
00000000 l    d  .group	00000000 .group
00000000 l    d  .group	00000000 .group
00000000 l    d  .group	00000000 .group
00000000 l    d  .group	00000000 .group
00000000 l    d  .group	00000000 .group
00000000 l    d  .group	00000000 .group
00000000 l    d  .group	00000000 .group
00000000 l    d  .group	00000000 .group
00000000 l    d  .group	00000000 .group
00000000 l    d  .group	00000000 .group
00000000 l    d  .group	00000000 .group
00000000 l    d  .group	00000000 .group
00000000 l    d  .group	00000000 .group
00000000 l    d  .group	00000000 .group
00000000 l    d  .group	00000000 .group
00000000 l    d  .group	00000000 .group
00000000 l    d  .group	00000000 .group
00000000 l    d  .group	00000000 .group
00000000 l    d  .group	00000000 .group
00000000 l    d  .group	00000000 .group
00000000 l    d  .group	00000000 .group
00000000 l    d  .group	00000000 .group
00000000  w    F .gnu.linkonce.t._ZSt8_DestroyIPPN9__gnu_cxx15_Hashtable_nodeISt4pairIKN4BEEV7ASTNodeES4_EEESaIS8_EEvT_SB_T0_	00000019 _ZSt8_DestroyIPPN9__gnu_cxx15_Hashtable_nodeISt4pairIKN4BEEV7ASTNodeES4_EEESaIS8_EEvT_SB_T0_
00000000  w    F .gnu.linkonce.t._ZSt6fill_nIPPN9__gnu_cxx15_Hashtable_nodeISt4pairIKN4BEEV7ASTNodeES4_EEEjS8_ET_SA_T0_RKT1_	00000024 _ZSt6fill_nIPPN9__gnu_cxx15_Hashtable_nodeISt4pairIKN4BEEV7ASTNodeES4_EEEjS8_ET_SA_T0_RKT1_
00000000  w    F .gnu.linkonce.t._ZSt24__uninitialized_fill_n_aIPPN9__gnu_cxx15_Hashtable_nodeISt4pairIKN4BEEV7ASTNodeES4_EEEjS8_S8_EvT_T0_RKT1_SaIT2_E	00000009 _ZSt24__uninitialized_fill_n_aIPPN9__gnu_cxx15_Hashtable_nodeISt4pairIKN4BEEV7ASTNodeES4_EEEjS8_S8_EvT_T0_RKT1_SaIT2_E
00000000         *UND*	00000000 _ZNSt8ios_base4InitD1Ev
00000000  w    F .gnu.linkonce.t._ZSt4fillIN9__gnu_cxx17__normal_iteratorIPPNS0_15_Hashtable_nodeISt4pairIKN4BEEV7ASTNodeES5_EEESt6vectorIS9_SaIS9_EEEES9_EvT_SF_RKT0_	0000001d _ZSt4fillIN9__gnu_cxx17__normal_iteratorIPPNS0_15_Hashtable_nodeISt4pairIKN4BEEV7ASTNodeES5_EEESt6vectorIS9_SaIS9_EEEES9_EvT_SF_RKT0_
00000000  w    F .gnu.linkonce.t._ZSt6fill_nIN9__gnu_cxx17__normal_iteratorIPPNS0_15_Hashtable_nodeISt4pairIKN4BEEV7ASTNodeES5_EEESt6vectorIS9_SaIS9_EEEEjS9_ET_SF_T0_RKT1_	00000034 _ZSt6fill_nIN9__gnu_cxx17__normal_iteratorIPPNS0_15_Hashtable_nodeISt4pairIKN4BEEV7ASTNodeES5_EEESt6vectorIS9_SaIS9_EEEEjS9_ET_SF_T0_RKT1_
00000000  w    F .gnu.linkonce.t._ZSt24__uninitialized_fill_n_aIN9__gnu_cxx17__normal_iteratorIPPNS0_15_Hashtable_nodeISt4pairIKN4BEEV7ASTNodeES5_EEESt6vectorIS9_SaIS9_EEEEjS9_S9_EvT_T0_RKT1_SaIT2_E	0000001f _ZSt24__uninitialized_fill_n_aIN9__gnu_cxx17__normal_iteratorIPPNS0_15_Hashtable_nodeISt4pairIKN4BEEV7ASTNodeES5_EEESt6vectorIS9_SaIS9_EEEEjS9_S9_EvT_T0_RKT1_SaIT2_E
00000000  w    F .gnu.linkonce.t._ZSt8_DestroyIPPSt6vectorIN4BEEV7ASTNodeESaIS2_EESaIS5_EEvT_S8_T0_	00000019 _ZSt8_DestroyIPPSt6vectorIN4BEEV7ASTNodeESaIS2_EESaIS5_EEvT_S8_T0_
00000000  w    F .gnu.linkonce.t._ZSt8_DestroyIN9__gnu_cxx17__normal_iteratorIPPNS0_15_Hashtable_nodeISt4pairIKN4BEEV7ASTNodeES5_EEESt6vectorIS9_SaIS9_EEEESC_EvT_SF_T0_	00000019 _ZSt8_DestroyIN9__gnu_cxx17__normal_iteratorIPPNS0_15_Hashtable_nodeISt4pairIKN4BEEV7ASTNodeES5_EEESt6vectorIS9_SaIS9_EEEESC_EvT_SF_T0_
00000000  w    F .gnu.linkonce.t._ZSt8_DestroyIN9__gnu_cxx17__normal_iteratorIPPSt6vectorIN4BEEV7ASTNodeESaIS4_EES2_IS7_SaIS7_EEEES9_EvT_SC_T0_	00000019 _ZSt8_DestroyIN9__gnu_cxx17__normal_iteratorIPPSt6vectorIN4BEEV7ASTNodeESaIS4_EES2_IS7_SaIS7_EEEES9_EvT_SC_T0_
00000000  w    F .gnu.linkonce.t._ZSt11lower_boundIPKmmET_S2_S2_RKT0_	00000043 _ZSt11lower_boundIPKmmET_S2_S2_RKT0_
00000000         *UND*	00000000 _ZNSt8ios_base4InitC1Ev
00000000         *UND*	00000000 __dso_handle
00000000         *UND*	00000000 __cxa_atexit
00000000  w    F .gnu.linkonce.t._ZNSt6vectorIPS_IN4BEEV7ASTNodeESaIS1_EESaIS4_EE13_M_insert_auxEN9__gnu_cxx17__normal_iteratorIPS4_S6_EERKS4_	0000012c _ZNSt6vectorIPS_IN4BEEV7ASTNodeESaIS1_EESaIS4_EE13_M_insert_auxEN9__gnu_cxx17__normal_iteratorIPS4_S6_EERKS4_
00000000         *UND*	00000000 memmove
00000000         *UND*	00000000 _ZSt17__throw_bad_allocv
00000000         *UND*	00000000 _Znwj
00000000         *UND*	00000000 _ZdlPv
00000000         *UND*	00000000 _ZSt20__throw_length_errorPKc
00000000         *UND*	00000000 _Unwind_Resume
00000000  w    F .gnu.linkonce.t._ZSt26__uninitialized_fill_n_auxIPN4BEEV7ASTNodeEjS1_EvT_T0_RKT1_12__false_type	00000093 _ZSt26__uninitialized_fill_n_auxIPN4BEEV7ASTNodeEjS1_EvT_T0_RKT1_12__false_type
00000000         *UND*	00000000 _ZN4BEEV7ASTNodeC1ERKS0_
00000000         *UND*	00000000 __cxa_begin_catch
00000000         *UND*	00000000 __cxa_rethrow
00000000         *UND*	00000000 __cxa_end_catch
00000000  w    F .gnu.linkonce.t._ZSt24__uninitialized_fill_n_aIPN4BEEV7ASTNodeEjS1_S1_EvT_T0_RKT1_SaIT2_E	0000000c _ZSt24__uninitialized_fill_n_aIPN4BEEV7ASTNodeEjS1_S1_EvT_T0_RKT1_SaIT2_E
00000000  w    F .gnu.linkonce.t._ZSt8_DestroyIN9__gnu_cxx17__normal_iteratorIPN4BEEV7ASTNodeESt6vectorIS3_SaIS3_EEEES6_EvT_S9_T0_	00000047 _ZSt8_DestroyIN9__gnu_cxx17__normal_iteratorIPN4BEEV7ASTNodeESt6vectorIS3_SaIS3_EEEES6_EvT_S9_T0_
00000000  w    F .gnu.linkonce.t._ZSt8_DestroyIPN4BEEV7ASTNodeESaIS1_EEvT_S4_T0_	00000047 _ZSt8_DestroyIPN4BEEV7ASTNodeESaIS1_EEvT_S4_T0_
00000000  w    F .gnu.linkonce.t._ZN9__gnu_cxx9hashtableISt4pairIKN4BEEV7ASTNodeES3_ES3_NS3_13ASTNodeHasherESt10_Select1stIS5_ENS3_12ASTNodeEqualESaIS3_EE5clearEv	0000011e _ZN9__gnu_cxx9hashtableISt4pairIKN4BEEV7ASTNodeES3_ES3_NS3_13ASTNodeHasherESt10_Select1stIS5_ENS3_12ASTNodeEqualESaIS3_EE5clearEv
00000090 g     F .text	000000f3 _ZN4BEEV7BeevMgr15PrintClauseListERSoRSt6vectorIPS2_INS_7ASTNodeESaIS3_EESaIS6_EE
00000000         *UND*	00000000 _ZStlsISt11char_traitsIcEERSt13basic_ostreamIcT_ES5_PKc
00000000         *UND*	00000000 _ZSt4endlIcSt11char_traitsIcEERSt13basic_ostreamIT_T0_ES6_
00000000         *UND*	00000000 _ZNSolsEm
00000000         *UND*	00000000 _ZN4BEEV12LispPrintVecERSoRKSt6vectorINS_7ASTNodeESaIS2_EEi
00000000         *UND*	00000000 _ZNSolsEl
00000000  w    F .gnu.linkonce.t._ZNSt6vectorIN4BEEV7ASTNodeESaIS1_EE13_M_insert_auxEN9__gnu_cxx17__normal_iteratorIPS1_S3_EERKS1_	0000036e _ZNSt6vectorIN4BEEV7ASTNodeESaIS1_EE13_M_insert_auxEN9__gnu_cxx17__normal_iteratorIPS1_S3_EERKS1_
00000000  w    F .gnu.linkonce.t._ZNSt6vectorIN4BEEV7ASTNodeESaIS1_EEC1Ej	000000eb _ZNSt6vectorIN4BEEV7ASTNodeESaIS1_EEC1Ej
00000000  w    F .gnu.linkonce.t._ZNSt6vectorIN4BEEV7ASTNodeESaIS1_EEC1ERKS3_	0000011c _ZNSt6vectorIN4BEEV7ASTNodeESaIS1_EEC1ERKS3_
00000000  w    F .gnu.linkonce.t._ZNSt6vectorIPN9__gnu_cxx15_Hashtable_nodeISt4pairIKN4BEEV7ASTNodeES4_EEESaIS8_EE5eraseENS0_17__normal_iteratorIPS8_SA_EESD_	00000062 _ZNSt6vectorIPN9__gnu_cxx15_Hashtable_nodeISt4pairIKN4BEEV7ASTNodeES4_EEESaIS8_EE5eraseENS0_17__normal_iteratorIPS8_SA_EESD_
00000000  w    F .gnu.linkonce.t._ZN9__gnu_cxx9hashtableISt4pairIKN4BEEV7ASTNodeES3_ES3_NS3_13ASTNodeHasherESt10_Select1stIS5_ENS3_12ASTNodeEqualESaIS3_EE6resizeEj	00000187 _ZN9__gnu_cxx9hashtableISt4pairIKN4BEEV7ASTNodeES3_ES3_NS3_13ASTNodeHasherESt10_Select1stIS5_ENS3_12ASTNodeEqualESaIS3_EE6resizeEj
00000000  w    F .gnu.linkonce.t._ZN9__gnu_cxx9hashtableISt4pairIKN4BEEV7ASTNodeES3_ES3_NS3_13ASTNodeHasherESt10_Select1stIS5_ENS3_12ASTNodeEqualESaIS3_EE14find_or_insertERKS5_	00000115 _ZN9__gnu_cxx9hashtableISt4pairIKN4BEEV7ASTNodeES3_ES3_NS3_13ASTNodeHasherESt10_Select1stIS5_ENS3_12ASTNodeEqualESaIS3_EE14find_or_insertERKS5_
00000000  w    F .gnu.linkonce.t._ZNSt6vectorIPN9__gnu_cxx15_Hashtable_nodeISt4pairIKN4BEEV7ASTNodeES4_EEESaIS8_EE14_M_fill_insertENS0_17__normal_iteratorIPS8_SA_EEjRKS8_	00000206 _ZNSt6vectorIPN9__gnu_cxx15_Hashtable_nodeISt4pairIKN4BEEV7ASTNodeES4_EEESaIS8_EE14_M_fill_insertENS0_17__normal_iteratorIPS8_SA_EEjRKS8_
00000000  w    F .gnu.linkonce.t._ZNSt6vectorIPN9__gnu_cxx15_Hashtable_nodeISt4pairIKN4BEEV7ASTNodeES4_EEESaIS8_EE7reserveEj	000000bd _ZNSt6vectorIPN9__gnu_cxx15_Hashtable_nodeISt4pairIKN4BEEV7ASTNodeES4_EEESaIS8_EE7reserveEj
00000000  w    F .gnu.linkonce.t._ZN9__gnu_cxx8hash_mapIN4BEEV7ASTNodeES2_NS2_13ASTNodeHasherENS2_12ASTNodeEqualESaIS2_EEC1Ev	000000bb _ZN9__gnu_cxx8hash_mapIN4BEEV7ASTNodeES2_NS2_13ASTNodeHasherENS2_12ASTNodeEqualESaIS2_EEC1Ev
00000190 g     F .text	000000bd _ZN4BEEV7BeevMgr16DeleteClauseListEPSt6vectorIPS1_INS_7ASTNodeESaIS2_EESaIS5_EE
00000000  w    F .gnu.linkonce.t._ZN4BEEV6CNFMgr12ToCNFPrePassERKNS_7ASTNodeE	0000071a _ZN4BEEV6CNFMgr12ToCNFPrePassERKNS_7ASTNodeE
00000000         *UND*	00000000 _ZN4BEEV7BeevMgr10CreateNodeENS_4KindERKSt6vectorINS_7ASTNodeESaIS3_EE
00000000         *UND*	00000000 _ZN4BEEV13_empty_ASTVecE
00000000         *UND*	00000000 _ZN4BEEV7BeevMgr10CreateNodeENS_4KindERKNS_7ASTNodeES4_RKSt6vectorIS2_SaIS2_EE
00000000         *UND*	00000000 _ZN4BEEV7BeevMgr13CreateSimpNotERKNS_7ASTNodeE
00000000  w    F .gnu.linkonce.t._ZN9__gnu_cxx9hashtableISt4pairIKN4BEEV7ASTNodeES3_ES3_NS3_13ASTNodeHasherESt10_Select1stIS5_ENS3_12ASTNodeEqualESaIS3_EE12_M_copy_fromERKSB_	0000024e _ZN9__gnu_cxx9hashtableISt4pairIKN4BEEV7ASTNodeES3_ES3_NS3_13ASTNodeHasherESt10_Select1stIS5_ENS3_12ASTNodeEqualESaIS3_EE12_M_copy_fromERKSB_
00000000  w    F .gnu.linkonce.t._ZN4BEEV6CNFMgr9ToCNF_ANDERSt6vectorIPS1_INS_7ASTNodeESaIS2_EESaIS5_EEiRS4_S9_	00000656 _ZN4BEEV6CNFMgr9ToCNF_ANDERSt6vectorIPS1_INS_7ASTNodeESaIS2_EESaIS5_EEiRS4_S9_
00000000         *UND*	00000000 _ZNSt19basic_ostringstreamIcSt11char_traitsIcESaIcEEC1ESt13_Ios_Openmode
00000000         *UND*	00000000 _ZNKSt15basic_stringbufIcSt11char_traitsIcESaIcEE3strEv
00000000         *UND*	00000000 _ZN4BEEV7BeevMgr12CreateSymbolEPKc
00000000         *UND*	00000000 _ZNSs4_Rep20_S_empty_rep_storageE
00000000         *UND*	00000000 _ZTVSt19basic_ostringstreamIcSt11char_traitsIcESaIcEE
00000000         *UND*	00000000 _ZTVSt15basic_stringbufIcSt11char_traitsIcESaIcEE
00000000         *UND*	00000000 _ZTVSt15basic_streambufIcSt11char_traitsIcEE
00000000         *UND*	00000000 _ZNSt6localeD1Ev
00000000         *UND*	00000000 _ZTTSt19basic_ostringstreamIcSt11char_traitsIcESaIcEE
00000000         *UND*	00000000 _ZTVSt9basic_iosIcSt11char_traitsIcEE
00000000         *UND*	00000000 _ZNSt8ios_baseD2Ev
00000000         *UND*	00000000 _ZSt4cout
00000000         *UND*	00000000 _ZNK4BEEV7ASTNode9LispPrintERSoi
00000000         *UND*	00000000 _ZN9__gnu_cxx18__exchange_and_addEPVii
00000000         *UND*	00000000 _ZNSs4_Rep10_M_destroyERKSaIcE
00000000  w    F .gnu.linkonce.t._ZN4BEEV6CNFMgr13ToCNF_AndLikeENS_4KindERSt6vectorIPS2_INS_7ASTNodeESaIS3_EESaIS6_EES3_	000007a8 _ZN4BEEV6CNFMgr13ToCNF_AndLikeENS_4KindERSt6vectorIPS2_INS_7ASTNodeESaIS3_EESaIS6_EES3_
00000000  w    F .gnu.linkonce.t._ZN4BEEV6CNFMgr9ToCNF_intERSt6vectorIPS1_INS_7ASTNodeESaIS2_EESaIS5_EES2_	00000d18 _ZN4BEEV6CNFMgr9ToCNF_intERSt6vectorIPS1_INS_7ASTNodeESaIS2_EESaIS5_EES2_
00000000         *UND*	00000000 _ZSt4cerr
00000000         *UND*	00000000 _ZN4BEEV11_kind_namesE
00000000         *UND*	00000000 _ZN4BEEV10FatalErrorEPKc
00000250 g     F .text	00000739 _ZN4BEEV7BeevMgr5ToCNFERKNS_7ASTNodeE
00000000         *UND*	00000000 _ZN4BEEV5statsE
00000000         *UND*	00000000 __gxx_personality_v0



ToSAT.o:     file format elf32-i386

SYMBOL TABLE:
00000000 l    df *ABS*	00000000 ToSAT.cpp
00000000 l    d  .text	00000000 .text
00000000 l    d  .data	00000000 .data
00000000 l    d  .bss	00000000 .bss
00000000 l    d  .ctors	00000000 .ctors
000004a0 l     F .text	00000010 _GLOBAL__I__ZN4BEEV7BeevMgr20LookupOrCreateSATVarERN7MINISAT6SolverERKNS_7ASTNodeE
00000000 l     O .bss	00000004 _ZN7MINISAT9lit_ErrorE
00000004 l     O .bss	00000004 _ZN7MINISAT9lit_UndefE
00000008 l     O .bss	00000004 _ZN7MINISAT7l_UndefE
0000000c l     O .bss	00000004 _ZN7MINISAT7l_FalseE
00000010 l     O .bss	00000004 _ZN7MINISAT6l_TrueE
00000014 l     O .bss	00000001 _ZSt8__ioinit
00000000 l    d  .rodata	00000000 .rodata
00000000 l     O .rodata	00000070 _ZN9__gnu_cxx16__stl_prime_listE
00000000 l    d  .gnu.linkonce.t._ZN4BEEV7ASTNodeD1Ev	00000000 .gnu.linkonce.t._ZN4BEEV7ASTNodeD1Ev
00000000 l    d  .rodata.str1.1	00000000 .rodata.str1.1
00000000 l    d  .rodata.str1.4	00000000 .rodata.str1.4
00000000 l    d  .rodata.cst4	00000000 .rodata.cst4
00000080 l     O .rodata	00000049 _ZZNK7MINISAT4HeapINS_11VarOrder_ltEE6inHeapEiE19__PRETTY_FUNCTION__
00000000 l    d  .gnu.linkonce.t._ZNK7MINISAT4HeapINS_11VarOrder_ltEE6inHeapEi	00000000 .gnu.linkonce.t._ZNK7MINISAT4HeapINS_11VarOrder_ltEE6inHeapEi
000000e0 l     O .rodata	0000002c _ZZN7MINISAT7xmallocIcEEPT_jE19__PRETTY_FUNCTION__
00000340 l     F .text	00000040 _ZN7MINISAT7xmallocIcEEPT_j
00000000 l    d  .gnu.linkonce.t._ZN7MINISAT3vecIiE5clearEb	00000000 .gnu.linkonce.t._ZN7MINISAT3vecIiE5clearEb
00000000 l    d  .gnu.linkonce.t._ZNSaIN4BEEV7ASTNodeEEC1Ev	00000000 .gnu.linkonce.t._ZNSaIN4BEEV7ASTNodeEEC1Ev
00000000 l    d  .gnu.linkonce.t._ZN7MINISAT3vecIcE5clearEb	00000000 .gnu.linkonce.t._ZN7MINISAT3vecIcE5clearEb
00000000 l    d  .gnu.linkonce.t._ZN7MINISAT3vecIPNS_6ClauseEE5clearEb	00000000 .gnu.linkonce.t._ZN7MINISAT3vecIPNS_6ClauseEE5clearEb
00000000 l    d  .gnu.linkonce.t._ZN7MINISAT3vecIdE5clearEb	00000000 .gnu.linkonce.t._ZN7MINISAT3vecIdE5clearEb
00000000 l    d  .gnu.linkonce.t._ZN7MINISAT3vecINS_8TrailPosEE5clearEb	00000000 .gnu.linkonce.t._ZN7MINISAT3vecINS_8TrailPosEE5clearEb
00000000 l    d  .gnu.linkonce.t._ZN7MINISAT3vecINS_5lboolEE5clearEb	00000000 .gnu.linkonce.t._ZN7MINISAT3vecINS_5lboolEE5clearEb
00000120 l     O .rodata	00000030 _ZZN7MINISAT8xreallocIiEEPT_S2_jE19__PRETTY_FUNCTION__
00000380 l     F .text	0000004b _ZN7MINISAT8xreallocIiEEPT_S2_j
00000160 l     O .rodata	00000039 _ZZN7MINISAT8xreallocINS_3LitEEEPT_S3_jE19__PRETTY_FUNCTION__
000003d0 l     F .text	0000004b _ZN7MINISAT8xreallocINS_3LitEEEPT_S3_j
00000000 l    d  .gnu.linkonce.t._ZSt8_DestroyIPPN9__gnu_cxx15_Hashtable_nodeISt4pairIKN4BEEV7ASTNodeES4_EEESaIS8_EEvT_SB_T0_	00000000 .gnu.linkonce.t._ZSt8_DestroyIPPN9__gnu_cxx15_Hashtable_nodeISt4pairIKN4BEEV7ASTNodeES4_EEESaIS8_EEvT_SB_T0_
00000000 l    d  .gnu.linkonce.t._ZSt8_DestroyIPPN9__gnu_cxx15_Hashtable_nodeIN4BEEV7ASTNodeEEESaIS5_EEvT_S8_T0_	00000000 .gnu.linkonce.t._ZSt8_DestroyIPPN9__gnu_cxx15_Hashtable_nodeIN4BEEV7ASTNodeEEESaIS5_EEvT_S8_T0_
00000000 l    d  .gnu.linkonce.t._ZSt8_DestroyIPPN9__gnu_cxx15_Hashtable_nodeISt4pairIKN4BEEV7ASTNodeEiEEESaIS8_EEvT_SB_T0_	00000000 .gnu.linkonce.t._ZSt8_DestroyIPPN9__gnu_cxx15_Hashtable_nodeISt4pairIKN4BEEV7ASTNodeEiEEESaIS8_EEvT_SB_T0_
00000000 l    d  .gnu.linkonce.t._ZSt8_DestroyIPPN9__gnu_cxx15_Hashtable_nodeISt4pairIKN4BEEV7ASTNodeEPNS0_8hash_mapIjbNS0_4hashIjEESt8equal_toIjESaIbEEEEEESaISG_EEvT_SJ_T0_	00000000 .gnu.linkonce.t._ZSt8_DestroyIPPN9__gnu_cxx15_Hashtable_nodeISt4pairIKN4BEEV7ASTNodeEPNS0_8hash_mapIjbNS0_4hashIjEESt8equal_toIjESaIbEEEEEESaISG_EEvT_SJ_T0_
00000000 l    d  .gnu.linkonce.t._ZSt8_DestroyIPPN9__gnu_cxx15_Hashtable_nodeISt4pairIKjbEEESaIS6_EEvT_S9_T0_	00000000 .gnu.linkonce.t._ZSt8_DestroyIPPN9__gnu_cxx15_Hashtable_nodeISt4pairIKjbEEESaIS6_EEvT_S9_T0_
00000000 l    d  .gnu.linkonce.t._ZSt6fill_nIPPN9__gnu_cxx15_Hashtable_nodeISt4pairIKN4BEEV7ASTNodeES4_EEEjS8_ET_SA_T0_RKT1_	00000000 .gnu.linkonce.t._ZSt6fill_nIPPN9__gnu_cxx15_Hashtable_nodeISt4pairIKN4BEEV7ASTNodeES4_EEEjS8_ET_SA_T0_RKT1_
00000000 l    d  .gnu.linkonce.t._ZSt24__uninitialized_fill_n_aIPPN9__gnu_cxx15_Hashtable_nodeISt4pairIKN4BEEV7ASTNodeES4_EEEjS8_S8_EvT_T0_RKT1_SaIT2_E	00000000 .gnu.linkonce.t._ZSt24__uninitialized_fill_n_aIPPN9__gnu_cxx15_Hashtable_nodeISt4pairIKN4BEEV7ASTNodeES4_EEEjS8_S8_EvT_T0_RKT1_SaIT2_E
00000000 l    d  .gnu.linkonce.t._ZSt6fill_nIPPN9__gnu_cxx15_Hashtable_nodeISt4pairIKN4BEEV7ASTNodeEiEEEjS8_ET_SA_T0_RKT1_	00000000 .gnu.linkonce.t._ZSt6fill_nIPPN9__gnu_cxx15_Hashtable_nodeISt4pairIKN4BEEV7ASTNodeEiEEEjS8_ET_SA_T0_RKT1_
00000000 l    d  .gnu.linkonce.t._ZSt24__uninitialized_fill_n_aIPPN9__gnu_cxx15_Hashtable_nodeISt4pairIKN4BEEV7ASTNodeEiEEEjS8_S8_EvT_T0_RKT1_SaIT2_E	00000000 .gnu.linkonce.t._ZSt24__uninitialized_fill_n_aIPPN9__gnu_cxx15_Hashtable_nodeISt4pairIKN4BEEV7ASTNodeEiEEEjS8_S8_EvT_T0_RKT1_SaIT2_E
00000000 l    d  .gnu.linkonce.t._ZSt6fill_nIPPN9__gnu_cxx15_Hashtable_nodeISt4pairIKN4BEEV7ASTNodeEPNS0_8hash_mapIjbNS0_4hashIjEESt8equal_toIjESaIbEEEEEEjSG_ET_SI_T0_RKT1_	00000000 .gnu.linkonce.t._ZSt6fill_nIPPN9__gnu_cxx15_Hashtable_nodeISt4pairIKN4BEEV7ASTNodeEPNS0_8hash_mapIjbNS0_4hashIjEESt8equal_toIjESaIbEEEEEEjSG_ET_SI_T0_RKT1_
00000000 l    d  .gnu.linkonce.t._ZSt24__uninitialized_fill_n_aIPPN9__gnu_cxx15_Hashtable_nodeISt4pairIKN4BEEV7ASTNodeEPNS0_8hash_mapIjbNS0_4hashIjEESt8equal_toIjESaIbEEEEEEjSG_SG_EvT_T0_RKT1_SaIT2_E	00000000 .gnu.linkonce.t._ZSt24__uninitialized_fill_n_aIPPN9__gnu_cxx15_Hashtable_nodeISt4pairIKN4BEEV7ASTNodeEPNS0_8hash_mapIjbNS0_4hashIjEESt8equal_toIjESaIbEEEEEEjSG_SG_EvT_T0_RKT1_SaIT2_E
00000000 l    d  .gnu.linkonce.t._ZSt6fill_nIPPN9__gnu_cxx15_Hashtable_nodeISt4pairIKjbEEEjS6_ET_S8_T0_RKT1_	00000000 .gnu.linkonce.t._ZSt6fill_nIPPN9__gnu_cxx15_Hashtable_nodeISt4pairIKjbEEEjS6_ET_S8_T0_RKT1_
00000000 l    d  .gnu.linkonce.t._ZSt24__uninitialized_fill_n_aIPPN9__gnu_cxx15_Hashtable_nodeISt4pairIKjbEEEjS6_S6_EvT_T0_RKT1_SaIT2_E	00000000 .gnu.linkonce.t._ZSt24__uninitialized_fill_n_aIPPN9__gnu_cxx15_Hashtable_nodeISt4pairIKjbEEEjS6_S6_EvT_T0_RKT1_SaIT2_E
00000000 l    d  .gnu.linkonce.t._ZSt6fill_nIPPN9__gnu_cxx15_Hashtable_nodeIN4BEEV7ASTNodeEEEjS5_ET_S7_T0_RKT1_	00000000 .gnu.linkonce.t._ZSt6fill_nIPPN9__gnu_cxx15_Hashtable_nodeIN4BEEV7ASTNodeEEEjS5_ET_S7_T0_RKT1_
00000000 l    d  .gnu.linkonce.t._ZSt24__uninitialized_fill_n_aIPPN9__gnu_cxx15_Hashtable_nodeIN4BEEV7ASTNodeEEEjS5_S5_EvT_T0_RKT1_SaIT2_E	00000000 .gnu.linkonce.t._ZSt24__uninitialized_fill_n_aIPPN9__gnu_cxx15_Hashtable_nodeIN4BEEV7ASTNodeEEEjS5_S5_EvT_T0_RKT1_SaIT2_E
00000420 l     F .text	00000010 __tcf_0
00000000 l    d  .gnu.linkonce.t._ZSt4fillIN9__gnu_cxx17__normal_iteratorIPPNS0_15_Hashtable_nodeIN4BEEV7ASTNodeEEESt6vectorIS6_SaIS6_EEEES6_EvT_SC_RKT0_	00000000 .gnu.linkonce.t._ZSt4fillIN9__gnu_cxx17__normal_iteratorIPPNS0_15_Hashtable_nodeIN4BEEV7ASTNodeEEESt6vectorIS6_SaIS6_EEEES6_EvT_SC_RKT0_
00000000 l    d  .gnu.linkonce.t._ZSt4fillIN9__gnu_cxx17__normal_iteratorIPPNS0_15_Hashtable_nodeISt4pairIKjbEEESt6vectorIS7_SaIS7_EEEES7_EvT_SD_RKT0_	00000000 .gnu.linkonce.t._ZSt4fillIN9__gnu_cxx17__normal_iteratorIPPNS0_15_Hashtable_nodeISt4pairIKjbEEESt6vectorIS7_SaIS7_EEEES7_EvT_SD_RKT0_
00000000 l    d  .gnu.linkonce.t._ZSt4fillIN9__gnu_cxx17__normal_iteratorIPPNS0_15_Hashtable_nodeISt4pairIKN4BEEV7ASTNodeES5_EEESt6vectorIS9_SaIS9_EEEES9_EvT_SF_RKT0_	00000000 .gnu.linkonce.t._ZSt4fillIN9__gnu_cxx17__normal_iteratorIPPNS0_15_Hashtable_nodeISt4pairIKN4BEEV7ASTNodeES5_EEESt6vectorIS9_SaIS9_EEEES9_EvT_SF_RKT0_
00000000 l    d  .gnu.linkonce.t._ZSt6fill_nIN9__gnu_cxx17__normal_iteratorIPPNS0_15_Hashtable_nodeISt4pairIKjbEEESt6vectorIS7_SaIS7_EEEEjS7_ET_SD_T0_RKT1_	00000000 .gnu.linkonce.t._ZSt6fill_nIN9__gnu_cxx17__normal_iteratorIPPNS0_15_Hashtable_nodeISt4pairIKjbEEESt6vectorIS7_SaIS7_EEEEjS7_ET_SD_T0_RKT1_
00000000 l    d  .gnu.linkonce.t._ZSt24__uninitialized_fill_n_aIN9__gnu_cxx17__normal_iteratorIPPNS0_15_Hashtable_nodeISt4pairIKjbEEESt6vectorIS7_SaIS7_EEEEjS7_S7_EvT_T0_RKT1_SaIT2_E	00000000 .gnu.linkonce.t._ZSt24__uninitialized_fill_n_aIN9__gnu_cxx17__normal_iteratorIPPNS0_15_Hashtable_nodeISt4pairIKjbEEESt6vectorIS7_SaIS7_EEEEjS7_S7_EvT_T0_RKT1_SaIT2_E
00000000 l    d  .gnu.linkonce.t._ZSt6fill_nIN9__gnu_cxx17__normal_iteratorIPPNS0_15_Hashtable_nodeISt4pairIKN4BEEV7ASTNodeES5_EEESt6vectorIS9_SaIS9_EEEEjS9_ET_SF_T0_RKT1_	00000000 .gnu.linkonce.t._ZSt6fill_nIN9__gnu_cxx17__normal_iteratorIPPNS0_15_Hashtable_nodeISt4pairIKN4BEEV7ASTNodeES5_EEESt6vectorIS9_SaIS9_EEEEjS9_ET_SF_T0_RKT1_
00000000 l    d  .gnu.linkonce.t._ZSt24__uninitialized_fill_n_aIN9__gnu_cxx17__normal_iteratorIPPNS0_15_Hashtable_nodeISt4pairIKN4BEEV7ASTNodeES5_EEESt6vectorIS9_SaIS9_EEEEjS9_S9_EvT_T0_RKT1_SaIT2_E	00000000 .gnu.linkonce.t._ZSt24__uninitialized_fill_n_aIN9__gnu_cxx17__normal_iteratorIPPNS0_15_Hashtable_nodeISt4pairIKN4BEEV7ASTNodeES5_EEESt6vectorIS9_SaIS9_EEEEjS9_S9_EvT_T0_RKT1_SaIT2_E
00000000 l    d  .gnu.linkonce.t._ZSt6fill_nIN9__gnu_cxx17__normal_iteratorIPPNS0_15_Hashtable_nodeIN4BEEV7ASTNodeEEESt6vectorIS6_SaIS6_EEEEjS6_ET_SC_T0_RKT1_	00000000 .gnu.linkonce.t._ZSt6fill_nIN9__gnu_cxx17__normal_iteratorIPPNS0_15_Hashtable_nodeIN4BEEV7ASTNodeEEESt6vectorIS6_SaIS6_EEEEjS6_ET_SC_T0_RKT1_
00000000 l    d  .gnu.linkonce.t._ZSt24__uninitialized_fill_n_aIN9__gnu_cxx17__normal_iteratorIPPNS0_15_Hashtable_nodeIN4BEEV7ASTNodeEEESt6vectorIS6_SaIS6_EEEEjS6_S6_EvT_T0_RKT1_SaIT2_E	00000000 .gnu.linkonce.t._ZSt24__uninitialized_fill_n_aIN9__gnu_cxx17__normal_iteratorIPPNS0_15_Hashtable_nodeIN4BEEV7ASTNodeEEESt6vectorIS6_SaIS6_EEEEjS6_S6_EvT_T0_RKT1_SaIT2_E
00000000 l    d  .gnu.linkonce.t._ZSt8_DestroyIPiSaIiEEvT_S2_T0_	00000000 .gnu.linkonce.t._ZSt8_DestroyIPiSaIiEEvT_S2_T0_
00000000 l    d  .gnu.linkonce.t._ZSt8_DestroyIN9__gnu_cxx17__normal_iteratorIPPNS0_15_Hashtable_nodeISt4pairIKjbEEESt6vectorIS7_SaIS7_EEEESA_EvT_SD_T0_	00000000 .gnu.linkonce.t._ZSt8_DestroyIN9__gnu_cxx17__normal_iteratorIPPNS0_15_Hashtable_nodeISt4pairIKjbEEESt6vectorIS7_SaIS7_EEEESA_EvT_SD_T0_
00000000 l    d  .gnu.linkonce.t._ZSt8_DestroyIN9__gnu_cxx17__normal_iteratorIPPNS0_15_Hashtable_nodeIN4BEEV7ASTNodeEEESt6vectorIS6_SaIS6_EEEES9_EvT_SC_T0_	00000000 .gnu.linkonce.t._ZSt8_DestroyIN9__gnu_cxx17__normal_iteratorIPPNS0_15_Hashtable_nodeIN4BEEV7ASTNodeEEESt6vectorIS6_SaIS6_EEEES9_EvT_SC_T0_
00000000 l    d  .gnu.linkonce.t._ZSt8_DestroyIN9__gnu_cxx17__normal_iteratorIPPNS0_15_Hashtable_nodeISt4pairIKN4BEEV7ASTNodeES5_EEESt6vectorIS9_SaIS9_EEEESC_EvT_SF_T0_	00000000 .gnu.linkonce.t._ZSt8_DestroyIN9__gnu_cxx17__normal_iteratorIPPNS0_15_Hashtable_nodeISt4pairIKN4BEEV7ASTNodeES5_EEESt6vectorIS9_SaIS9_EEEESC_EvT_SF_T0_
00000000 l    d  .gnu.linkonce.t._ZSt8_DestroyIN9__gnu_cxx17__normal_iteratorIPiSt6vectorIiSaIiEEEES4_EvT_S7_T0_	00000000 .gnu.linkonce.t._ZSt8_DestroyIN9__gnu_cxx17__normal_iteratorIPiSt6vectorIiSaIiEEEES4_EvT_S7_T0_
00000000 l    d  .gnu.linkonce.t._ZSt11lower_boundIPKmmET_S2_S2_RKT0_	00000000 .gnu.linkonce.t._ZSt11lower_boundIPKmmET_S2_S2_RKT0_
00000000 l    d  .gnu.linkonce.t._ZSt9__reverseIN9__gnu_cxx17__normal_iteratorIPcSsEEEvT_S4_St26random_access_iterator_tag	00000000 .gnu.linkonce.t._ZSt9__reverseIN9__gnu_cxx17__normal_iteratorIPcSsEEEvT_S4_St26random_access_iterator_tag
00000000 l    d  .gnu.linkonce.t._ZNSaIN4BEEV7ASTNodeEED1Ev	00000000 .gnu.linkonce.t._ZNSaIN4BEEV7ASTNodeEED1Ev
00000000 l    d  .gnu.linkonce.t._ZNSaIPN9__gnu_cxx15_Hashtable_nodeIN4BEEV7ASTNodeEEEED1Ev	00000000 .gnu.linkonce.t._ZNSaIPN9__gnu_cxx15_Hashtable_nodeIN4BEEV7ASTNodeEEEED1Ev
00000000 l    d  .gnu.linkonce.t._ZN7MINISAT3vecINS_3LitEE5clearEb	00000000 .gnu.linkonce.t._ZN7MINISAT3vecINS_3LitEE5clearEb
00000430 l     F .text	00000070 _Z41__static_initialization_and_destruction_0ii
00000000 l    d  .gnu.linkonce.t._ZN4BEEV7ASTNodeaSERKS0_	00000000 .gnu.linkonce.t._ZN4BEEV7ASTNodeaSERKS0_
00000000 l    d  .gnu.linkonce.t._ZN9__gnu_cxx19_Hashtable_iteratorISt4pairIKN4BEEV7ASTNodeESt6vectorIS3_SaIS3_EEES3_NS3_13ASTNodeHasherESt10_Select1stIS8_ENS3_12ASTNodeEqualESaIS7_EEppEv	00000000 .gnu.linkonce.t._ZN9__gnu_cxx19_Hashtable_iteratorISt4pairIKN4BEEV7ASTNodeESt6vectorIS3_SaIS3_EEES3_NS3_13ASTNodeHasherESt10_Select1stIS8_ENS3_12ASTNodeEqualESaIS7_EEppEv
00000000 l    d  .gnu.linkonce.t._ZN7MINISAT3vecINS0_IPNS_6ClauseEEEE5clearEb	00000000 .gnu.linkonce.t._ZN7MINISAT3vecINS0_IPNS_6ClauseEEEE5clearEb
00000000 l    d  .gnu.linkonce.t._ZN9__gnu_cxx19_Hashtable_iteratorISt4pairIKN4BEEV7ASTNodeEPNS_8hash_mapIjbNS_4hashIjEESt8equal_toIjESaIbEEEES3_NS3_13ASTNodeHasherESt10_Select1stISD_ENS3_12ASTNodeEqualESaISC_EEppEv	00000000 .gnu.linkonce.t._ZN9__gnu_cxx19_Hashtable_iteratorISt4pairIKN4BEEV7ASTNodeEPNS_8hash_mapIjbNS_4hashIjEESt8equal_toIjESaIbEEEES3_NS3_13ASTNodeHasherESt10_Select1stISD_ENS3_12ASTNodeEqualESaISC_EEppEv
00000000 l    d  .gnu.linkonce.t._ZN9__gnu_cxx19_Hashtable_iteratorISt4pairIKN4BEEV7ASTNodeEiES3_NS3_13ASTNodeHasherESt10_Select1stIS5_ENS3_12ASTNodeEqualESaIiEEppEv	00000000 .gnu.linkonce.t._ZN9__gnu_cxx19_Hashtable_iteratorISt4pairIKN4BEEV7ASTNodeEiES3_NS3_13ASTNodeHasherESt10_Select1stIS5_ENS3_12ASTNodeEqualESaIiEEppEv
00000000 l    d  .gnu.linkonce.t._ZN7MINISAT6SolverD1Ev	00000000 .gnu.linkonce.t._ZN7MINISAT6SolverD1Ev
00000000 l    d  .gnu.linkonce.t._ZN9__gnu_cxx19_Hashtable_iteratorISt4pairIKN4BEEV7ASTNodeES3_ES3_NS3_13ASTNodeHasherESt10_Select1stIS5_ENS3_12ASTNodeEqualESaIS3_EEppEv	00000000 .gnu.linkonce.t._ZN9__gnu_cxx19_Hashtable_iteratorISt4pairIKN4BEEV7ASTNodeES3_ES3_NS3_13ASTNodeHasherESt10_Select1stIS5_ENS3_12ASTNodeEqualESaIS3_EEppEv
00000000 l    d  .gnu.linkonce.t._ZN7MINISAT3vecIiE4growEi	00000000 .gnu.linkonce.t._ZN7MINISAT3vecIiE4growEi
00000000 l    d  .gnu.linkonce.t._ZN7MINISAT3vecIiE6growToEiRKi	00000000 .gnu.linkonce.t._ZN7MINISAT3vecIiE6growToEiRKi
000001a0 l     O .rodata	00000046 _ZZN7MINISAT4HeapINS_11VarOrder_ltEE9setBoundsEiE19__PRETTY_FUNCTION__
00000000 l    d  .gnu.linkonce.t._ZN7MINISAT4HeapINS_11VarOrder_ltEE9setBoundsEi	00000000 .gnu.linkonce.t._ZN7MINISAT4HeapINS_11VarOrder_ltEE9setBoundsEi
00000000 l    d  .gnu.linkonce.t._ZN7MINISAT3vecINS_3LitEE4growEi	00000000 .gnu.linkonce.t._ZN7MINISAT3vecINS_3LitEE4growEi
00000000 l    d  .gnu.linkonce.t._ZN7MINISAT3vecINS_3LitEE6growToEiRKS1_	00000000 .gnu.linkonce.t._ZN7MINISAT3vecINS_3LitEE6growToEiRKS1_
00000000 l    d  .gnu.linkonce.t._ZN7MINISAT3vecINS_3LitEE6growToEi	00000000 .gnu.linkonce.t._ZN7MINISAT3vecINS_3LitEE6growToEi
00000200 l     O .rodata	00000043 _ZZN7MINISAT4HeapINS_11VarOrder_ltEE6insertEiE19__PRETTY_FUNCTION__
00000000 l    d  .gnu.linkonce.t._ZN7MINISAT4HeapINS_11VarOrder_ltEE6insertEi	00000000 .gnu.linkonce.t._ZN7MINISAT4HeapINS_11VarOrder_ltEE6insertEi
00000000 l    d  .gnu.linkonce.t._ZN9__gnu_cxx9hashtableISt4pairIKjbEjNS_4hashIjEESt10_Select1stIS3_ESt8equal_toIjESaIbEE5clearEv	00000000 .gnu.linkonce.t._ZN9__gnu_cxx9hashtableISt4pairIKjbEjNS_4hashIjEESt10_Select1stIS3_ESt8equal_toIjESaIbEE5clearEv
00000000 l    d  .gnu.linkonce.t._ZNSt6vectorIiSaIiEE13_M_insert_auxEN9__gnu_cxx17__normal_iteratorIPiS1_EERKi	00000000 .gnu.linkonce.t._ZNSt6vectorIiSaIiEE13_M_insert_auxEN9__gnu_cxx17__normal_iteratorIPiS1_EERKi
00000260 l     O .rodata	0000005b _ZZN7MINISAT10Clause_newINS_3vecINS_3LitEEEEEPNS_6ClauseERKT_bE19__PRETTY_FUNCTION__
00000000 l    d  .gnu.linkonce.t._ZN7MINISAT6SolverC1Ev	00000000 .gnu.linkonce.t._ZN7MINISAT6SolverC1Ev
00000000 l    d  .gnu.linkonce.t._ZNSt6vectorIPN9__gnu_cxx15_Hashtable_nodeIN4BEEV7ASTNodeEEESaIS5_EED1Ev	00000000 .gnu.linkonce.t._ZNSt6vectorIPN9__gnu_cxx15_Hashtable_nodeIN4BEEV7ASTNodeEEESaIS5_EED1Ev
00000000 l    d  .gnu.linkonce.t._ZNSt6vectorIPN9__gnu_cxx15_Hashtable_nodeIN4BEEV7ASTNodeEEESaIS5_EE14_M_fill_insertENS0_17__normal_iteratorIPS5_S7_EEjRKS5_	00000000 .gnu.linkonce.t._ZNSt6vectorIPN9__gnu_cxx15_Hashtable_nodeIN4BEEV7ASTNodeEEESaIS5_EE14_M_fill_insertENS0_17__normal_iteratorIPS5_S7_EEjRKS5_
00000000 l    d  .gnu.linkonce.t._ZNSt6vectorIPN9__gnu_cxx15_Hashtable_nodeIN4BEEV7ASTNodeEEESaIS5_EE7reserveEj	00000000 .gnu.linkonce.t._ZNSt6vectorIPN9__gnu_cxx15_Hashtable_nodeIN4BEEV7ASTNodeEEESaIS5_EE7reserveEj
00000000 l    d  .gnu.linkonce.t._ZNSt6vectorIPN9__gnu_cxx15_Hashtable_nodeISt4pairIKN4BEEV7ASTNodeES4_EEESaIS8_EE14_M_fill_insertENS0_17__normal_iteratorIPS8_SA_EEjRKS8_	00000000 .gnu.linkonce.t._ZNSt6vectorIPN9__gnu_cxx15_Hashtable_nodeISt4pairIKN4BEEV7ASTNodeES4_EEESaIS8_EE14_M_fill_insertENS0_17__normal_iteratorIPS8_SA_EEjRKS8_
00000000 l    d  .gnu.linkonce.t._ZNSt6vectorIPN9__gnu_cxx15_Hashtable_nodeISt4pairIKN4BEEV7ASTNodeES4_EEESaIS8_EE7reserveEj	00000000 .gnu.linkonce.t._ZNSt6vectorIPN9__gnu_cxx15_Hashtable_nodeISt4pairIKN4BEEV7ASTNodeES4_EEESaIS8_EE7reserveEj
00000000 l    d  .gnu.linkonce.t._ZNSt6vectorIPN9__gnu_cxx15_Hashtable_nodeISt4pairIKN4BEEV7ASTNodeES4_EEESaIS8_EED1Ev	00000000 .gnu.linkonce.t._ZNSt6vectorIPN9__gnu_cxx15_Hashtable_nodeISt4pairIKN4BEEV7ASTNodeES4_EEESaIS8_EED1Ev
00000000 l    d  .gnu.linkonce.t._ZNSt6vectorIPN9__gnu_cxx15_Hashtable_nodeISt4pairIKjbEEESaIS6_EE14_M_fill_insertENS0_17__normal_iteratorIPS6_S8_EEjRKS6_	00000000 .gnu.linkonce.t._ZNSt6vectorIPN9__gnu_cxx15_Hashtable_nodeISt4pairIKjbEEESaIS6_EE14_M_fill_insertENS0_17__normal_iteratorIPS6_S8_EEjRKS6_
00000000 l    d  .gnu.linkonce.t._ZNSt6vectorIPN9__gnu_cxx15_Hashtable_nodeISt4pairIKjbEEESaIS6_EE7reserveEj	00000000 .gnu.linkonce.t._ZNSt6vectorIPN9__gnu_cxx15_Hashtable_nodeISt4pairIKjbEEESaIS6_EE7reserveEj
00000000 l    d  .gnu.linkonce.t._ZN9__gnu_cxx9hashtableISt4pairIKjbEjNS_4hashIjEESt10_Select1stIS3_ESt8equal_toIjESaIbEE6resizeEj	00000000 .gnu.linkonce.t._ZN9__gnu_cxx9hashtableISt4pairIKjbEjNS_4hashIjEESt10_Select1stIS3_ESt8equal_toIjESaIbEE6resizeEj
00000000 l    d  .gcc_except_table	00000000 .gcc_except_table
00000000 l    d  .gnu.linkonce.t._ZN9__gnu_cxx9hashtableISt4pairIKjbEjNS_4hashIjEESt10_Select1stIS3_ESt8equal_toIjESaIbEE14find_or_insertERKS3_	00000000 .gnu.linkonce.t._ZN9__gnu_cxx9hashtableISt4pairIKjbEjNS_4hashIjEESt10_Select1stIS3_ESt8equal_toIjESaIbEE14find_or_insertERKS3_
00000000 l    d  .gnu.linkonce.t._ZN9__gnu_cxx9hashtableISt4pairIKN4BEEV7ASTNodeES3_ES3_NS3_13ASTNodeHasherESt10_Select1stIS5_ENS3_12ASTNodeEqualESaIS3_EE6resizeEj	00000000 .gnu.linkonce.t._ZN9__gnu_cxx9hashtableISt4pairIKN4BEEV7ASTNodeES3_ES3_NS3_13ASTNodeHasherESt10_Select1stIS5_ENS3_12ASTNodeEqualESaIS3_EE6resizeEj
00000000 l    d  .gnu.linkonce.t._ZNSt6vectorIN4BEEV7ASTNodeESaIS1_EEC1ERKS3_	00000000 .gnu.linkonce.t._ZNSt6vectorIN4BEEV7ASTNodeESaIS1_EEC1ERKS3_
00000000 l    d  .gnu.linkonce.t._ZN9__gnu_cxx9hashtableISt4pairIKN4BEEV7ASTNodeEiES3_NS3_13ASTNodeHasherESt10_Select1stIS5_ENS3_12ASTNodeEqualESaIiEE6resizeEj	00000000 .gnu.linkonce.t._ZN9__gnu_cxx9hashtableISt4pairIKN4BEEV7ASTNodeEiES3_NS3_13ASTNodeHasherESt10_Select1stIS5_ENS3_12ASTNodeEqualESaIiEE6resizeEj
00000000 l    d  .gnu.linkonce.t._ZN9__gnu_cxx9hashtableISt4pairIKN4BEEV7ASTNodeEPNS_8hash_mapIjbNS_4hashIjEESt8equal_toIjESaIbEEEES3_NS3_13ASTNodeHasherESt10_Select1stISD_ENS3_12ASTNodeEqualESaISC_EE6resizeEj	00000000 .gnu.linkonce.t._ZN9__gnu_cxx9hashtableISt4pairIKN4BEEV7ASTNodeEPNS_8hash_mapIjbNS_4hashIjEESt8equal_toIjESaIbEEEES3_NS3_13ASTNodeHasherESt10_Select1stISD_ENS3_12ASTNodeEqualESaISC_EE6resizeEj
00000000 l    d  .gnu.linkonce.t._ZSt8_DestroyIPN4BEEV7ASTNodeESaIS1_EEvT_S4_T0_	00000000 .gnu.linkonce.t._ZSt8_DestroyIPN4BEEV7ASTNodeESaIS1_EEvT_S4_T0_
00000000 l    d  .gnu.linkonce.t._ZN9__gnu_cxx9hashtableIN4BEEV7ASTNodeES2_NS2_13ASTNodeHasherESt9_IdentityIS2_ENS2_12ASTNodeEqualESaIS2_EE5clearEv	00000000 .gnu.linkonce.t._ZN9__gnu_cxx9hashtableIN4BEEV7ASTNodeES2_NS2_13ASTNodeHasherESt9_IdentityIS2_ENS2_12ASTNodeEqualESaIS2_EE5clearEv
00000000 l    d  .gnu.linkonce.t._ZN9__gnu_cxx9hashtableISt4pairIKN4BEEV7ASTNodeEiES3_NS3_13ASTNodeHasherESt10_Select1stIS5_ENS3_12ASTNodeEqualESaIiEE14find_or_insertERKS5_	00000000 .gnu.linkonce.t._ZN9__gnu_cxx9hashtableISt4pairIKN4BEEV7ASTNodeEiES3_NS3_13ASTNodeHasherESt10_Select1stIS5_ENS3_12ASTNodeEqualESaIiEE14find_or_insertERKS5_
00000000 l    d  .gnu.linkonce.t._ZN9__gnu_cxx9hashtableISt4pairIKN4BEEV7ASTNodeEPNS_8hash_mapIjbNS_4hashIjEESt8equal_toIjESaIbEEEES3_NS3_13ASTNodeHasherESt10_Select1stISD_ENS3_12ASTNodeEqualESaISC_EE14find_or_insertERKSD_	00000000 .gnu.linkonce.t._ZN9__gnu_cxx9hashtableISt4pairIKN4BEEV7ASTNodeEPNS_8hash_mapIjbNS_4hashIjEESt8equal_toIjESaIbEEEES3_NS3_13ASTNodeHasherESt10_Select1stISD_ENS3_12ASTNodeEqualESaISC_EE14find_or_insertERKSD_
00000aa0 l     F .text	000000aa _ZN7MINISATneIN4BEEV7ASTNodeEEEbRKT_S5_
00000000 l    d  .gnu.linkonce.t._ZN9__gnu_cxx9hashtableISt4pairIKN4BEEV7ASTNodeES3_ES3_NS3_13ASTNodeHasherESt10_Select1stIS5_ENS3_12ASTNodeEqualESaIS3_EE14find_or_insertERKS5_	00000000 .gnu.linkonce.t._ZN9__gnu_cxx9hashtableISt4pairIKN4BEEV7ASTNodeES3_ES3_NS3_13ASTNodeHasherESt10_Select1stIS5_ENS3_12ASTNodeEqualESaIS3_EE14find_or_insertERKS5_
00000000 l    d  .gnu.linkonce.t._ZN9__gnu_cxx8hash_mapIN4BEEV7ASTNodeES2_NS2_13ASTNodeHasherENS2_12ASTNodeEqualESaIS2_EEixERKS2_	00000000 .gnu.linkonce.t._ZN9__gnu_cxx8hash_mapIN4BEEV7ASTNodeES2_NS2_13ASTNodeHasherENS2_12ASTNodeEqualESaIS2_EEixERKS2_
00000000 l    d  .gnu.linkonce.t._ZSt8_DestroyIN9__gnu_cxx17__normal_iteratorIPN4BEEV7ASTNodeESt6vectorIS3_SaIS3_EEEES6_EvT_S9_T0_	00000000 .gnu.linkonce.t._ZSt8_DestroyIN9__gnu_cxx17__normal_iteratorIPN4BEEV7ASTNodeESt6vectorIS3_SaIS3_EEEES6_EvT_S9_T0_
00000000 l    d  .gnu.linkonce.t._ZNSt6vectorIN4BEEV7ASTNodeESaIS1_EE13_M_insert_auxEN9__gnu_cxx17__normal_iteratorIPS1_S3_EERKS1_	00000000 .gnu.linkonce.t._ZNSt6vectorIN4BEEV7ASTNodeESaIS1_EE13_M_insert_auxEN9__gnu_cxx17__normal_iteratorIPS1_S3_EERKS1_
00000000 l    d  .gnu.linkonce.t._ZN9__gnu_cxx9hashtableISt4pairIKN4BEEV7ASTNodeES3_ES3_NS3_13ASTNodeHasherESt10_Select1stIS5_ENS3_12ASTNodeEqualESaIS3_EE5clearEv	00000000 .gnu.linkonce.t._ZN9__gnu_cxx9hashtableISt4pairIKN4BEEV7ASTNodeES3_ES3_NS3_13ASTNodeHasherESt10_Select1stIS5_ENS3_12ASTNodeEqualESaIS3_EE5clearEv
00000000 l    d  .gnu.linkonce.t._ZN9__gnu_cxx8hash_mapIN4BEEV7ASTNodeES2_NS2_13ASTNodeHasherENS2_12ASTNodeEqualESaIS2_EEC1Ev	00000000 .gnu.linkonce.t._ZN9__gnu_cxx8hash_mapIN4BEEV7ASTNodeES2_NS2_13ASTNodeHasherENS2_12ASTNodeEqualESaIS2_EEC1Ev
00000000 l    d  .eh_frame	00000000 .eh_frame
00000000 l    d  .note.GNU-stack	00000000 .note.GNU-stack
00000000 l    d  .comment	00000000 .comment
00000000 l    d  .group	00000000 .group
00000000 l    d  .group	00000000 .group
00000000 l    d  .group	00000000 .group
00000000 l    d  .group	00000000 .group
00000000 l    d  .group	00000000 .group
00000000 l    d  .group	00000000 .group
00000000 l    d  .group	00000000 .group
00000000 l    d  .group	00000000 .group
00000000 l    d  .group	00000000 .group
00000000 l    d  .group	00000000 .group
00000000 l    d  .group	00000000 .group
00000000 l    d  .group	00000000 .group
00000000 l    d  .group	00000000 .group
00000000 l    d  .group	00000000 .group
00000000 l    d  .group	00000000 .group
00000000 l    d  .group	00000000 .group
00000000 l    d  .group	00000000 .group
00000000 l    d  .group	00000000 .group
00000000 l    d  .group	00000000 .group
00000000 l    d  .group	00000000 .group
00000000 l    d  .group	00000000 .group
00000000 l    d  .group	00000000 .group
00000000 l    d  .group	00000000 .group
00000000 l    d  .group	00000000 .group
00000000 l    d  .group	00000000 .group
00000000 l    d  .group	00000000 .group
00000000 l    d  .group	00000000 .group
00000000 l    d  .group	00000000 .group
00000000 l    d  .group	00000000 .group
00000000 l    d  .group	00000000 .group
00000000 l    d  .group	00000000 .group
00000000 l    d  .group	00000000 .group
00000000 l    d  .group	00000000 .group
00000000 l    d  .group	00000000 .group
00000000 l    d  .group	00000000 .group
00000000 l    d  .group	00000000 .group
00000000 l    d  .group	00000000 .group
00000000 l    d  .group	00000000 .group
00000000 l    d  .group	00000000 .group
00000000 l    d  .group	00000000 .group
00000000 l    d  .group	00000000 .group
00000000 l    d  .group	00000000 .group
00000000 l    d  .group	00000000 .group
00000000 l    d  .group	00000000 .group
00000000 l    d  .group	00000000 .group
00000000 l    d  .group	00000000 .group
00000000 l    d  .group	00000000 .group
00000000 l    d  .group	00000000 .group
00000000 l    d  .group	00000000 .group
00000000 l    d  .group	00000000 .group
00000000 l    d  .group	00000000 .group
00000000 l    d  .group	00000000 .group
00000000 l    d  .group	00000000 .group
00000000 l    d  .group	00000000 .group
00000000 l    d  .group	00000000 .group
00000000 l    d  .group	00000000 .group
00000000 l    d  .group	00000000 .group
00000000 l    d  .group	00000000 .group
00000000 l    d  .group	00000000 .group
00000000 l    d  .group	00000000 .group
00000000 l    d  .group	00000000 .group
00000000 l    d  .group	00000000 .group
00000000 l    d  .group	00000000 .group
00000000 l    d  .group	00000000 .group
00000000 l    d  .group	00000000 .group
00000000 l    d  .group	00000000 .group
00000000 l    d  .group	00000000 .group
00000000 l    d  .group	00000000 .group
00000000 l    d  .group	00000000 .group
00000000 l    d  .group	00000000 .group
00000000 l    d  .group	00000000 .group
00000000 l    d  .group	00000000 .group
00000000 l    d  .group	00000000 .group
00000000 l    d  .group	00000000 .group
00000000 l    d  .group	00000000 .group
00000000 l    d  .group	00000000 .group
00000000 l    d  .group	00000000 .group
00000000 l    d  .group	00000000 .group
00000000 l    d  .group	00000000 .group
00000000 l    d  .group	00000000 .group
00000000 l    d  .group	00000000 .group
00000000 l    d  .group	00000000 .group
00000000 l    d  .group	00000000 .group
00000000 l    d  .group	00000000 .group
00000000  w    F .gnu.linkonce.t._ZN4BEEV7ASTNodeD1Ev	0000002b _ZN4BEEV7ASTNodeD1Ev
00000000 g     F .text	0000029e _ZN4BEEV7BeevMgr10PrintStatsERN7MINISAT11SolverStatsE
00000000         *UND*	00000000 _ZN4BEEV5statsE
00000000         *UND*	00000000 getrusage
00000000         *UND*	00000000 getpid
00000000         *UND*	00000000 sprintf
00000000         *UND*	00000000 fopen
00000000         *UND*	00000000 fscanf
00000000         *UND*	00000000 fclose
00000000         *UND*	00000000 getpagesize
00000000         *UND*	00000000 printf
00000000         *UND*	00000000 stdout
00000000         *UND*	00000000 fflush
000002a0 g     F .text	0000009a _ZN4BEEV7BeevMgr11PrintOutputEb
00000000         *UND*	00000000 _ZN4BEEV12print_outputE
00000000         *UND*	00000000 _ZN4BEEV20smtlib_parser_enableE
00000000         *UND*	00000000 _ZSt4cout
00000000         *UND*	00000000 _ZStlsISt11char_traitsIcEERSt13basic_ostreamIcT_ES5_PKc
00000000  w    F .gnu.linkonce.t._ZNK7MINISAT4HeapINS_11VarOrder_ltEE6inHeapEi	0000003c _ZNK7MINISAT4HeapINS_11VarOrder_ltEE6inHeapEi
00000000         *UND*	00000000 __assert_fail
00000000         *UND*	00000000 malloc
00000000  w    F .gnu.linkonce.t._ZN7MINISAT3vecIiE5clearEb	0000005c _ZN7MINISAT3vecIiE5clearEb
00000000         *UND*	00000000 free
00000000  w    F .gnu.linkonce.t._ZNSaIN4BEEV7ASTNodeEEC1Ev	00000005 _ZNSaIN4BEEV7ASTNodeEEC1Ev
00000000  w    F .gnu.linkonce.t._ZN7MINISAT3vecIcE5clearEb	0000005c _ZN7MINISAT3vecIcE5clearEb
00000000  w    F .gnu.linkonce.t._ZN7MINISAT3vecIPNS_6ClauseEE5clearEb	0000005c _ZN7MINISAT3vecIPNS_6ClauseEE5clearEb
00000000  w    F .gnu.linkonce.t._ZN7MINISAT3vecIdE5clearEb	0000005c _ZN7MINISAT3vecIdE5clearEb
00000000  w    F .gnu.linkonce.t._ZN7MINISAT3vecINS_8TrailPosEE5clearEb	0000005c _ZN7MINISAT3vecINS_8TrailPosEE5clearEb
00000000  w    F .gnu.linkonce.t._ZN7MINISAT3vecINS_5lboolEE5clearEb	0000005c _ZN7MINISAT3vecINS_5lboolEE5clearEb
00000000         *UND*	00000000 realloc
00000000  w    F .gnu.linkonce.t._ZSt8_DestroyIPPN9__gnu_cxx15_Hashtable_nodeISt4pairIKN4BEEV7ASTNodeES4_EEESaIS8_EEvT_SB_T0_	00000019 _ZSt8_DestroyIPPN9__gnu_cxx15_Hashtable_nodeISt4pairIKN4BEEV7ASTNodeES4_EEESaIS8_EEvT_SB_T0_
00000000  w    F .gnu.linkonce.t._ZSt8_DestroyIPPN9__gnu_cxx15_Hashtable_nodeIN4BEEV7ASTNodeEEESaIS5_EEvT_S8_T0_	00000019 _ZSt8_DestroyIPPN9__gnu_cxx15_Hashtable_nodeIN4BEEV7ASTNodeEEESaIS5_EEvT_S8_T0_
00000000  w    F .gnu.linkonce.t._ZSt8_DestroyIPPN9__gnu_cxx15_Hashtable_nodeISt4pairIKN4BEEV7ASTNodeEiEEESaIS8_EEvT_SB_T0_	00000019 _ZSt8_DestroyIPPN9__gnu_cxx15_Hashtable_nodeISt4pairIKN4BEEV7ASTNodeEiEEESaIS8_EEvT_SB_T0_
00000000  w    F .gnu.linkonce.t._ZSt8_DestroyIPPN9__gnu_cxx15_Hashtable_nodeISt4pairIKN4BEEV7ASTNodeEPNS0_8hash_mapIjbNS0_4hashIjEESt8equal_toIjESaIbEEEEEESaISG_EEvT_SJ_T0_	00000019 _ZSt8_DestroyIPPN9__gnu_cxx15_Hashtable_nodeISt4pairIKN4BEEV7ASTNodeEPNS0_8hash_mapIjbNS0_4hashIjEESt8equal_toIjESaIbEEEEEESaISG_EEvT_SJ_T0_
00000000  w    F .gnu.linkonce.t._ZSt8_DestroyIPPN9__gnu_cxx15_Hashtable_nodeISt4pairIKjbEEESaIS6_EEvT_S9_T0_	00000019 _ZSt8_DestroyIPPN9__gnu_cxx15_Hashtable_nodeISt4pairIKjbEEESaIS6_EEvT_S9_T0_
00000000  w    F .gnu.linkonce.t._ZSt6fill_nIPPN9__gnu_cxx15_Hashtable_nodeISt4pairIKN4BEEV7ASTNodeES4_EEEjS8_ET_SA_T0_RKT1_	00000024 _ZSt6fill_nIPPN9__gnu_cxx15_Hashtable_nodeISt4pairIKN4BEEV7ASTNodeES4_EEEjS8_ET_SA_T0_RKT1_
00000000  w    F .gnu.linkonce.t._ZSt24__uninitialized_fill_n_aIPPN9__gnu_cxx15_Hashtable_nodeISt4pairIKN4BEEV7ASTNodeES4_EEEjS8_S8_EvT_T0_RKT1_SaIT2_E	00000009 _ZSt24__uninitialized_fill_n_aIPPN9__gnu_cxx15_Hashtable_nodeISt4pairIKN4BEEV7ASTNodeES4_EEEjS8_S8_EvT_T0_RKT1_SaIT2_E
00000000  w    F .gnu.linkonce.t._ZSt6fill_nIPPN9__gnu_cxx15_Hashtable_nodeISt4pairIKN4BEEV7ASTNodeEiEEEjS8_ET_SA_T0_RKT1_	00000024 _ZSt6fill_nIPPN9__gnu_cxx15_Hashtable_nodeISt4pairIKN4BEEV7ASTNodeEiEEEjS8_ET_SA_T0_RKT1_
00000000  w    F .gnu.linkonce.t._ZSt24__uninitialized_fill_n_aIPPN9__gnu_cxx15_Hashtable_nodeISt4pairIKN4BEEV7ASTNodeEiEEEjS8_S8_EvT_T0_RKT1_SaIT2_E	00000009 _ZSt24__uninitialized_fill_n_aIPPN9__gnu_cxx15_Hashtable_nodeISt4pairIKN4BEEV7ASTNodeEiEEEjS8_S8_EvT_T0_RKT1_SaIT2_E
00000000  w    F .gnu.linkonce.t._ZSt6fill_nIPPN9__gnu_cxx15_Hashtable_nodeISt4pairIKN4BEEV7ASTNodeEPNS0_8hash_mapIjbNS0_4hashIjEESt8equal_toIjESaIbEEEEEEjSG_ET_SI_T0_RKT1_	00000024 _ZSt6fill_nIPPN9__gnu_cxx15_Hashtable_nodeISt4pairIKN4BEEV7ASTNodeEPNS0_8hash_mapIjbNS0_4hashIjEESt8equal_toIjESaIbEEEEEEjSG_ET_SI_T0_RKT1_
00000000  w    F .gnu.linkonce.t._ZSt24__uninitialized_fill_n_aIPPN9__gnu_cxx15_Hashtable_nodeISt4pairIKN4BEEV7ASTNodeEPNS0_8hash_mapIjbNS0_4hashIjEESt8equal_toIjESaIbEEEEEEjSG_SG_EvT_T0_RKT1_SaIT2_E	00000009 _ZSt24__uninitialized_fill_n_aIPPN9__gnu_cxx15_Hashtable_nodeISt4pairIKN4BEEV7ASTNodeEPNS0_8hash_mapIjbNS0_4hashIjEESt8equal_toIjESaIbEEEEEEjSG_SG_EvT_T0_RKT1_SaIT2_E
00000000  w    F .gnu.linkonce.t._ZSt6fill_nIPPN9__gnu_cxx15_Hashtable_nodeISt4pairIKjbEEEjS6_ET_S8_T0_RKT1_	00000024 _ZSt6fill_nIPPN9__gnu_cxx15_Hashtable_nodeISt4pairIKjbEEEjS6_ET_S8_T0_RKT1_
00000000  w    F .gnu.linkonce.t._ZSt24__uninitialized_fill_n_aIPPN9__gnu_cxx15_Hashtable_nodeISt4pairIKjbEEEjS6_S6_EvT_T0_RKT1_SaIT2_E	00000009 _ZSt24__uninitialized_fill_n_aIPPN9__gnu_cxx15_Hashtable_nodeISt4pairIKjbEEEjS6_S6_EvT_T0_RKT1_SaIT2_E
00000000  w    F .gnu.linkonce.t._ZSt6fill_nIPPN9__gnu_cxx15_Hashtable_nodeIN4BEEV7ASTNodeEEEjS5_ET_S7_T0_RKT1_	00000024 _ZSt6fill_nIPPN9__gnu_cxx15_Hashtable_nodeIN4BEEV7ASTNodeEEEjS5_ET_S7_T0_RKT1_
00000000  w    F .gnu.linkonce.t._ZSt24__uninitialized_fill_n_aIPPN9__gnu_cxx15_Hashtable_nodeIN4BEEV7ASTNodeEEEjS5_S5_EvT_T0_RKT1_SaIT2_E	00000009 _ZSt24__uninitialized_fill_n_aIPPN9__gnu_cxx15_Hashtable_nodeIN4BEEV7ASTNodeEEEjS5_S5_EvT_T0_RKT1_SaIT2_E
00000000         *UND*	00000000 _ZNSt8ios_base4InitD1Ev
00000000  w    F .gnu.linkonce.t._ZSt4fillIN9__gnu_cxx17__normal_iteratorIPPNS0_15_Hashtable_nodeIN4BEEV7ASTNodeEEESt6vectorIS6_SaIS6_EEEES6_EvT_SC_RKT0_	0000001d _ZSt4fillIN9__gnu_cxx17__normal_iteratorIPPNS0_15_Hashtable_nodeIN4BEEV7ASTNodeEEESt6vectorIS6_SaIS6_EEEES6_EvT_SC_RKT0_
00000000  w    F .gnu.linkonce.t._ZSt4fillIN9__gnu_cxx17__normal_iteratorIPPNS0_15_Hashtable_nodeISt4pairIKjbEEESt6vectorIS7_SaIS7_EEEES7_EvT_SD_RKT0_	0000001d _ZSt4fillIN9__gnu_cxx17__normal_iteratorIPPNS0_15_Hashtable_nodeISt4pairIKjbEEESt6vectorIS7_SaIS7_EEEES7_EvT_SD_RKT0_
00000000  w    F .gnu.linkonce.t._ZSt4fillIN9__gnu_cxx17__normal_iteratorIPPNS0_15_Hashtable_nodeISt4pairIKN4BEEV7ASTNodeES5_EEESt6vectorIS9_SaIS9_EEEES9_EvT_SF_RKT0_	0000001d _ZSt4fillIN9__gnu_cxx17__normal_iteratorIPPNS0_15_Hashtable_nodeISt4pairIKN4BEEV7ASTNodeES5_EEESt6vectorIS9_SaIS9_EEEES9_EvT_SF_RKT0_
00000000  w    F .gnu.linkonce.t._ZSt6fill_nIN9__gnu_cxx17__normal_iteratorIPPNS0_15_Hashtable_nodeISt4pairIKjbEEESt6vectorIS7_SaIS7_EEEEjS7_ET_SD_T0_RKT1_	00000034 _ZSt6fill_nIN9__gnu_cxx17__normal_iteratorIPPNS0_15_Hashtable_nodeISt4pairIKjbEEESt6vectorIS7_SaIS7_EEEEjS7_ET_SD_T0_RKT1_
00000000  w    F .gnu.linkonce.t._ZSt24__uninitialized_fill_n_aIN9__gnu_cxx17__normal_iteratorIPPNS0_15_Hashtable_nodeISt4pairIKjbEEESt6vectorIS7_SaIS7_EEEEjS7_S7_EvT_T0_RKT1_SaIT2_E	0000001f _ZSt24__uninitialized_fill_n_aIN9__gnu_cxx17__normal_iteratorIPPNS0_15_Hashtable_nodeISt4pairIKjbEEESt6vectorIS7_SaIS7_EEEEjS7_S7_EvT_T0_RKT1_SaIT2_E
00000000  w    F .gnu.linkonce.t._ZSt6fill_nIN9__gnu_cxx17__normal_iteratorIPPNS0_15_Hashtable_nodeISt4pairIKN4BEEV7ASTNodeES5_EEESt6vectorIS9_SaIS9_EEEEjS9_ET_SF_T0_RKT1_	00000034 _ZSt6fill_nIN9__gnu_cxx17__normal_iteratorIPPNS0_15_Hashtable_nodeISt4pairIKN4BEEV7ASTNodeES5_EEESt6vectorIS9_SaIS9_EEEEjS9_ET_SF_T0_RKT1_
00000000  w    F .gnu.linkonce.t._ZSt24__uninitialized_fill_n_aIN9__gnu_cxx17__normal_iteratorIPPNS0_15_Hashtable_nodeISt4pairIKN4BEEV7ASTNodeES5_EEESt6vectorIS9_SaIS9_EEEEjS9_S9_EvT_T0_RKT1_SaIT2_E	0000001f _ZSt24__uninitialized_fill_n_aIN9__gnu_cxx17__normal_iteratorIPPNS0_15_Hashtable_nodeISt4pairIKN4BEEV7ASTNodeES5_EEESt6vectorIS9_SaIS9_EEEEjS9_S9_EvT_T0_RKT1_SaIT2_E
00000000  w    F .gnu.linkonce.t._ZSt6fill_nIN9__gnu_cxx17__normal_iteratorIPPNS0_15_Hashtable_nodeIN4BEEV7ASTNodeEEESt6vectorIS6_SaIS6_EEEEjS6_ET_SC_T0_RKT1_	00000034 _ZSt6fill_nIN9__gnu_cxx17__normal_iteratorIPPNS0_15_Hashtable_nodeIN4BEEV7ASTNodeEEESt6vectorIS6_SaIS6_EEEEjS6_ET_SC_T0_RKT1_
00000000  w    F .gnu.linkonce.t._ZSt24__uninitialized_fill_n_aIN9__gnu_cxx17__normal_iteratorIPPNS0_15_Hashtable_nodeIN4BEEV7ASTNodeEEESt6vectorIS6_SaIS6_EEEEjS6_S6_EvT_T0_RKT1_SaIT2_E	0000001f _ZSt24__uninitialized_fill_n_aIN9__gnu_cxx17__normal_iteratorIPPNS0_15_Hashtable_nodeIN4BEEV7ASTNodeEEESt6vectorIS6_SaIS6_EEEEjS6_S6_EvT_T0_RKT1_SaIT2_E
00000000  w    F .gnu.linkonce.t._ZSt8_DestroyIPiSaIiEEvT_S2_T0_	00000019 _ZSt8_DestroyIPiSaIiEEvT_S2_T0_
00000000  w    F .gnu.linkonce.t._ZSt8_DestroyIN9__gnu_cxx17__normal_iteratorIPPNS0_15_Hashtable_nodeISt4pairIKjbEEESt6vectorIS7_SaIS7_EEEESA_EvT_SD_T0_	00000019 _ZSt8_DestroyIN9__gnu_cxx17__normal_iteratorIPPNS0_15_Hashtable_nodeISt4pairIKjbEEESt6vectorIS7_SaIS7_EEEESA_EvT_SD_T0_
00000000  w    F .gnu.linkonce.t._ZSt8_DestroyIN9__gnu_cxx17__normal_iteratorIPPNS0_15_Hashtable_nodeIN4BEEV7ASTNodeEEESt6vectorIS6_SaIS6_EEEES9_EvT_SC_T0_	00000019 _ZSt8_DestroyIN9__gnu_cxx17__normal_iteratorIPPNS0_15_Hashtable_nodeIN4BEEV7ASTNodeEEESt6vectorIS6_SaIS6_EEEES9_EvT_SC_T0_
00000000  w    F .gnu.linkonce.t._ZSt8_DestroyIN9__gnu_cxx17__normal_iteratorIPPNS0_15_Hashtable_nodeISt4pairIKN4BEEV7ASTNodeES5_EEESt6vectorIS9_SaIS9_EEEESC_EvT_SF_T0_	00000019 _ZSt8_DestroyIN9__gnu_cxx17__normal_iteratorIPPNS0_15_Hashtable_nodeISt4pairIKN4BEEV7ASTNodeES5_EEESt6vectorIS9_SaIS9_EEEESC_EvT_SF_T0_
00000000  w    F .gnu.linkonce.t._ZSt8_DestroyIN9__gnu_cxx17__normal_iteratorIPiSt6vectorIiSaIiEEEES4_EvT_S7_T0_	00000019 _ZSt8_DestroyIN9__gnu_cxx17__normal_iteratorIPiSt6vectorIiSaIiEEEES4_EvT_S7_T0_
00000000  w    F .gnu.linkonce.t._ZSt11lower_boundIPKmmET_S2_S2_RKT0_	00000043 _ZSt11lower_boundIPKmmET_S2_S2_RKT0_
00000000  w    F .gnu.linkonce.t._ZSt9__reverseIN9__gnu_cxx17__normal_iteratorIPcSsEEEvT_S4_St26random_access_iterator_tag	00000036 _ZSt9__reverseIN9__gnu_cxx17__normal_iteratorIPcSsEEEvT_S4_St26random_access_iterator_tag
00000000  w    F .gnu.linkonce.t._ZNSaIN4BEEV7ASTNodeEED1Ev	00000005 _ZNSaIN4BEEV7ASTNodeEED1Ev
00000000  w    F .gnu.linkonce.t._ZNSaIPN9__gnu_cxx15_Hashtable_nodeIN4BEEV7ASTNodeEEEED1Ev	00000005 _ZNSaIPN9__gnu_cxx15_Hashtable_nodeIN4BEEV7ASTNodeEEEED1Ev
00000000  w    F .gnu.linkonce.t._ZN7MINISAT3vecINS_3LitEE5clearEb	0000005c _ZN7MINISAT3vecINS_3LitEE5clearEb
00000000         *UND*	00000000 _ZNSt8ios_base4InitC1Ev
00000000         *UND*	00000000 __dso_handle
00000000         *UND*	00000000 __cxa_atexit
00000000  w    F .gnu.linkonce.t._ZN4BEEV7ASTNodeaSERKS0_	0000004d _ZN4BEEV7ASTNodeaSERKS0_
00000000  w    F .gnu.linkonce.t._ZN9__gnu_cxx19_Hashtable_iteratorISt4pairIKN4BEEV7ASTNodeESt6vectorIS3_SaIS3_EEES3_NS3_13ASTNodeHasherESt10_Select1stIS8_ENS3_12ASTNodeEqualESaIS7_EEppEv	00000058 _ZN9__gnu_cxx19_Hashtable_iteratorISt4pairIKN4BEEV7ASTNodeESt6vectorIS3_SaIS3_EEES3_NS3_13ASTNodeHasherESt10_Select1stIS8_ENS3_12ASTNodeEqualESaIS7_EEppEv
00000000  w    F .gnu.linkonce.t._ZN7MINISAT3vecINS0_IPNS_6ClauseEEEE5clearEb	0000007c _ZN7MINISAT3vecINS0_IPNS_6ClauseEEEE5clearEb
00000000  w    F .gnu.linkonce.t._ZN9__gnu_cxx19_Hashtable_iteratorISt4pairIKN4BEEV7ASTNodeEPNS_8hash_mapIjbNS_4hashIjEESt8equal_toIjESaIbEEEES3_NS3_13ASTNodeHasherESt10_Select1stISD_ENS3_12ASTNodeEqualESaISC_EEppEv	00000058 _ZN9__gnu_cxx19_Hashtable_iteratorISt4pairIKN4BEEV7ASTNodeEPNS_8hash_mapIjbNS_4hashIjEESt8equal_toIjESaIbEEEES3_NS3_13ASTNodeHasherESt10_Select1stISD_ENS3_12ASTNodeEqualESaISC_EEppEv
00000000  w    F .gnu.linkonce.t._ZN9__gnu_cxx19_Hashtable_iteratorISt4pairIKN4BEEV7ASTNodeEiES3_NS3_13ASTNodeHasherESt10_Select1stIS5_ENS3_12ASTNodeEqualESaIiEEppEv	00000058 _ZN9__gnu_cxx19_Hashtable_iteratorISt4pairIKN4BEEV7ASTNodeEiES3_NS3_13ASTNodeHasherESt10_Select1stIS5_ENS3_12ASTNodeEqualESaIiEEppEv
000004b0 g     F .text	00000152 _ZN4BEEV7BeevMgr30PrintActivityLevels_Of_SATVarsEPcRN7MINISAT6SolverE
00000000         *UND*	00000000 _ZN4BEEV18print_sat_varorderE
00000000         *UND*	00000000 _ZNSolsEm
00000000         *UND*	00000000 _ZNK4BEEV7ASTNode8PL_PrintERSoi
00000000         *UND*	00000000 _ZNSolsEd
00000000         *UND*	00000000 _ZSt4endlIcSt11char_traitsIcEERSt13basic_ostreamIT_T0_ES6_
00000000         *UND*	00000000 _ZNSolsEl
00000000  w    F .gnu.linkonce.t._ZN7MINISAT6SolverD1Ev	000002c8 _ZN7MINISAT6SolverD1Ev
00000000  w    F .gnu.linkonce.t._ZN9__gnu_cxx19_Hashtable_iteratorISt4pairIKN4BEEV7ASTNodeES3_ES3_NS3_13ASTNodeHasherESt10_Select1stIS5_ENS3_12ASTNodeEqualESaIS3_EEppEv	00000058 _ZN9__gnu_cxx19_Hashtable_iteratorISt4pairIKN4BEEV7ASTNodeES3_ES3_NS3_13ASTNodeHasherESt10_Select1stIS5_ENS3_12ASTNodeEqualESaIS3_EEppEv
00000000  w    F .gnu.linkonce.t._ZN7MINISAT3vecIiE4growEi	00000078 _ZN7MINISAT3vecIiE4growEi
00000000  w    F .gnu.linkonce.t._ZN7MINISAT3vecIiE6growToEiRKi	00000077 _ZN7MINISAT3vecIiE6growToEiRKi
00000000  w    F .gnu.linkonce.t._ZN7MINISAT4HeapINS_11VarOrder_ltEE9setBoundsEi	00000041 _ZN7MINISAT4HeapINS_11VarOrder_ltEE9setBoundsEi
00000000  w    F .gnu.linkonce.t._ZN7MINISAT3vecINS_3LitEE4growEi	00000078 _ZN7MINISAT3vecINS_3LitEE4growEi
00000000  w    F .gnu.linkonce.t._ZN7MINISAT3vecINS_3LitEE6growToEiRKS1_	00000060 _ZN7MINISAT3vecINS_3LitEE6growToEiRKS1_
00000000  w    F .gnu.linkonce.t._ZN7MINISAT3vecINS_3LitEE6growToEi	0000005d _ZN7MINISAT3vecINS_3LitEE6growToEi
00000000  w    F .gnu.linkonce.t._ZN7MINISAT4HeapINS_11VarOrder_ltEE6insertEi	000001a3 _ZN7MINISAT4HeapINS_11VarOrder_ltEE6insertEi
00000000  w    F .gnu.linkonce.t._ZN9__gnu_cxx9hashtableISt4pairIKjbEjNS_4hashIjEESt10_Select1stIS3_ESt8equal_toIjESaIbEE5clearEv	00000088 _ZN9__gnu_cxx9hashtableISt4pairIKjbEjNS_4hashIjEESt10_Select1stIS3_ESt8equal_toIjESaIbEE5clearEv
00000000         *UND*	00000000 _ZdlPv
00000000  w    F .gnu.linkonce.t._ZNSt6vectorIiSaIiEE13_M_insert_auxEN9__gnu_cxx17__normal_iteratorIPiS1_EERKi	0000012c _ZNSt6vectorIiSaIiEE13_M_insert_auxEN9__gnu_cxx17__normal_iteratorIPiS1_EERKi
00000000         *UND*	00000000 memmove
00000000         *UND*	00000000 _ZSt17__throw_bad_allocv
00000000         *UND*	00000000 _Znwj
00000000         *UND*	00000000 _ZSt20__throw_length_errorPKc
00000000  w    F .gnu.linkonce.t._ZN7MINISAT6SolverC1Ev	00000818 _ZN7MINISAT6SolverC1Ev
00000000  w    F .gnu.linkonce.t._ZNSt6vectorIPN9__gnu_cxx15_Hashtable_nodeIN4BEEV7ASTNodeEEESaIS5_EED1Ev	00000034 _ZNSt6vectorIPN9__gnu_cxx15_Hashtable_nodeIN4BEEV7ASTNodeEEESaIS5_EED1Ev
00000000  w    F .gnu.linkonce.t._ZNSt6vectorIPN9__gnu_cxx15_Hashtable_nodeIN4BEEV7ASTNodeEEESaIS5_EE14_M_fill_insertENS0_17__normal_iteratorIPS5_S7_EEjRKS5_	00000206 _ZNSt6vectorIPN9__gnu_cxx15_Hashtable_nodeIN4BEEV7ASTNodeEEESaIS5_EE14_M_fill_insertENS0_17__normal_iteratorIPS5_S7_EEjRKS5_
00000000  w    F .gnu.linkonce.t._ZNSt6vectorIPN9__gnu_cxx15_Hashtable_nodeIN4BEEV7ASTNodeEEESaIS5_EE7reserveEj	000000bd _ZNSt6vectorIPN9__gnu_cxx15_Hashtable_nodeIN4BEEV7ASTNodeEEESaIS5_EE7reserveEj
00000000  w    F .gnu.linkonce.t._ZNSt6vectorIPN9__gnu_cxx15_Hashtable_nodeISt4pairIKN4BEEV7ASTNodeES4_EEESaIS8_EE14_M_fill_insertENS0_17__normal_iteratorIPS8_SA_EEjRKS8_	00000206 _ZNSt6vectorIPN9__gnu_cxx15_Hashtable_nodeISt4pairIKN4BEEV7ASTNodeES4_EEESaIS8_EE14_M_fill_insertENS0_17__normal_iteratorIPS8_SA_EEjRKS8_
00000000  w    F .gnu.linkonce.t._ZNSt6vectorIPN9__gnu_cxx15_Hashtable_nodeISt4pairIKN4BEEV7ASTNodeES4_EEESaIS8_EE7reserveEj	000000bd _ZNSt6vectorIPN9__gnu_cxx15_Hashtable_nodeISt4pairIKN4BEEV7ASTNodeES4_EEESaIS8_EE7reserveEj
00000000  w    F .gnu.linkonce.t._ZNSt6vectorIPN9__gnu_cxx15_Hashtable_nodeISt4pairIKN4BEEV7ASTNodeES4_EEESaIS8_EED1Ev	00000034 _ZNSt6vectorIPN9__gnu_cxx15_Hashtable_nodeISt4pairIKN4BEEV7ASTNodeES4_EEESaIS8_EED1Ev
00000000  w    F .gnu.linkonce.t._ZNSt6vectorIPN9__gnu_cxx15_Hashtable_nodeISt4pairIKjbEEESaIS6_EE14_M_fill_insertENS0_17__normal_iteratorIPS6_S8_EEjRKS6_	00000206 _ZNSt6vectorIPN9__gnu_cxx15_Hashtable_nodeISt4pairIKjbEEESaIS6_EE14_M_fill_insertENS0_17__normal_iteratorIPS6_S8_EEjRKS6_
00000000  w    F .gnu.linkonce.t._ZNSt6vectorIPN9__gnu_cxx15_Hashtable_nodeISt4pairIKjbEEESaIS6_EE7reserveEj	000000bd _ZNSt6vectorIPN9__gnu_cxx15_Hashtable_nodeISt4pairIKjbEEESaIS6_EE7reserveEj
00000000         *UND*	00000000 _Unwind_Resume
00000000  w    F .gnu.linkonce.t._ZN9__gnu_cxx9hashtableISt4pairIKjbEjNS_4hashIjEESt10_Select1stIS3_ESt8equal_toIjESaIbEE6resizeEj	00000187 _ZN9__gnu_cxx9hashtableISt4pairIKjbEjNS_4hashIjEESt10_Select1stIS3_ESt8equal_toIjESaIbEE6resizeEj
00000000  w    F .gnu.linkonce.t._ZN9__gnu_cxx9hashtableISt4pairIKjbEjNS_4hashIjEESt10_Select1stIS3_ESt8equal_toIjESaIbEE14find_or_insertERKS3_	000000b0 _ZN9__gnu_cxx9hashtableISt4pairIKjbEjNS_4hashIjEESt10_Select1stIS3_ESt8equal_toIjESaIbEE14find_or_insertERKS3_
00000610 g     F .text	000001c7 _ZN4BEEV7BeevMgr16BoolVectoBVConstEPN9__gnu_cxx8hash_mapIjbNS1_4hashIjEESt8equal_toIjESaIbEEEj
00000000         *UND*	00000000 _ZNSs4_Rep20_S_empty_rep_storageE
00000000         *UND*	00000000 _ZNSs4_Rep11_S_terminalE
00000000         *UND*	00000000 _ZNSs7reserveEj
00000000         *UND*	00000000 _ZN4BEEV7BeevMgr13CreateBVConstEPKci
00000000         *UND*	00000000 _ZN4BEEV10FatalErrorEPKcRKNS_7ASTNodeEi
00000000         *UND*	00000000 _ZN9__gnu_cxx18__exchange_and_addEPVii
00000000         *UND*	00000000 _ZNSs4_Rep10_M_destroyERKSaIcE
00000000  w    F .gnu.linkonce.t._ZN9__gnu_cxx9hashtableISt4pairIKN4BEEV7ASTNodeES3_ES3_NS3_13ASTNodeHasherESt10_Select1stIS5_ENS3_12ASTNodeEqualESaIS3_EE6resizeEj	00000187 _ZN9__gnu_cxx9hashtableISt4pairIKN4BEEV7ASTNodeES3_ES3_NS3_13ASTNodeHasherESt10_Select1stIS5_ENS3_12ASTNodeEqualESaIS3_EE6resizeEj
00000000  w    F .gnu.linkonce.t._ZNSt6vectorIN4BEEV7ASTNodeESaIS1_EEC1ERKS3_	0000011c _ZNSt6vectorIN4BEEV7ASTNodeESaIS1_EEC1ERKS3_
00000000         *UND*	00000000 _ZN4BEEV7ASTNodeC1ERKS0_
00000000         *UND*	00000000 __cxa_begin_catch
00000000         *UND*	00000000 __cxa_rethrow
00000000         *UND*	00000000 __cxa_end_catch
00000000  w    F .gnu.linkonce.t._ZN9__gnu_cxx9hashtableISt4pairIKN4BEEV7ASTNodeEiES3_NS3_13ASTNodeHasherESt10_Select1stIS5_ENS3_12ASTNodeEqualESaIiEE6resizeEj	00000187 _ZN9__gnu_cxx9hashtableISt4pairIKN4BEEV7ASTNodeEiES3_NS3_13ASTNodeHasherESt10_Select1stIS5_ENS3_12ASTNodeEqualESaIiEE6resizeEj
00000000  w    F .gnu.linkonce.t._ZN9__gnu_cxx9hashtableISt4pairIKN4BEEV7ASTNodeEPNS_8hash_mapIjbNS_4hashIjEESt8equal_toIjESaIbEEEES3_NS3_13ASTNodeHasherESt10_Select1stISD_ENS3_12ASTNodeEqualESaISC_EE6resizeEj	00000187 _ZN9__gnu_cxx9hashtableISt4pairIKN4BEEV7ASTNodeEPNS_8hash_mapIjbNS_4hashIjEESt8equal_toIjESaIbEEEES3_NS3_13ASTNodeHasherESt10_Select1stISD_ENS3_12ASTNodeEqualESaISC_EE6resizeEj
00000000  w    F .gnu.linkonce.t._ZSt8_DestroyIPN4BEEV7ASTNodeESaIS1_EEvT_S4_T0_	00000047 _ZSt8_DestroyIPN4BEEV7ASTNodeESaIS1_EEvT_S4_T0_
00000000  w    F .gnu.linkonce.t._ZN9__gnu_cxx9hashtableIN4BEEV7ASTNodeES2_NS2_13ASTNodeHasherESt9_IdentityIS2_ENS2_12ASTNodeEqualESaIS2_EE5clearEv	000000c8 _ZN9__gnu_cxx9hashtableIN4BEEV7ASTNodeES2_NS2_13ASTNodeHasherESt9_IdentityIS2_ENS2_12ASTNodeEqualESaIS2_EE5clearEv
000007e0 g     F .text	000001d9 _ZN4BEEV7BeevMgr13PrintSATModelERN7MINISAT6SolverE
00000000         *UND*	00000000 _ZN4BEEV11print_nodesE
00000000         *UND*	00000000 _ZNK4BEEV7ASTNode9LispPrintERSoi
00000000         *UND*	00000000 _ZN4BEEV13_empty_ASTVecE
00000000         *UND*	00000000 _ZN4BEEV7BeevMgr10CreateNodeENS_4KindERKNS_7ASTNodeERKSt6vectorIS2_SaIS2_EE
00000000  w    F .gnu.linkonce.t._ZN9__gnu_cxx9hashtableISt4pairIKN4BEEV7ASTNodeEiES3_NS3_13ASTNodeHasherESt10_Select1stIS5_ENS3_12ASTNodeEqualESaIiEE14find_or_insertERKS5_	000000e9 _ZN9__gnu_cxx9hashtableISt4pairIKN4BEEV7ASTNodeEiES3_NS3_13ASTNodeHasherESt10_Select1stIS5_ENS3_12ASTNodeEqualESaIiEE14find_or_insertERKS5_
000009c0 g     F .text	000000d7 _ZN4BEEV7BeevMgr16SymbolTruthValueERN7MINISAT6SolverENS_7ASTNodeE
00000000  w    F .gnu.linkonce.t._ZN9__gnu_cxx9hashtableISt4pairIKN4BEEV7ASTNodeEPNS_8hash_mapIjbNS_4hashIjEESt8equal_toIjESaIbEEEES3_NS3_13ASTNodeHasherESt10_Select1stISD_ENS3_12ASTNodeEqualESaISC_EE14find_or_insertERKSD_	000000e9 _ZN9__gnu_cxx9hashtableISt4pairIKN4BEEV7ASTNodeEPNS_8hash_mapIjbNS_4hashIjEESt8equal_toIjESaIbEEEES3_NS3_13ASTNodeHasherESt10_Select1stISD_ENS3_12ASTNodeEqualESaISC_EE14find_or_insertERKSD_
00000000  w    F .gnu.linkonce.t._ZN9__gnu_cxx9hashtableISt4pairIKN4BEEV7ASTNodeES3_ES3_NS3_13ASTNodeHasherESt10_Select1stIS5_ENS3_12ASTNodeEqualESaIS3_EE14find_or_insertERKS5_	00000115 _ZN9__gnu_cxx9hashtableISt4pairIKN4BEEV7ASTNodeES3_ES3_NS3_13ASTNodeHasherESt10_Select1stIS5_ENS3_12ASTNodeEqualESaIS3_EE14find_or_insertERKS5_
00000000  w    F .gnu.linkonce.t._ZN9__gnu_cxx8hash_mapIN4BEEV7ASTNodeES2_NS2_13ASTNodeHasherENS2_12ASTNodeEqualESaIS2_EEixERKS2_	00000127 _ZN9__gnu_cxx8hash_mapIN4BEEV7ASTNodeES2_NS2_13ASTNodeHasherENS2_12ASTNodeEqualESaIS2_EEixERKS2_
00000000  w    F .gnu.linkonce.t._ZSt8_DestroyIN9__gnu_cxx17__normal_iteratorIPN4BEEV7ASTNodeESt6vectorIS3_SaIS3_EEEES6_EvT_S9_T0_	00000047 _ZSt8_DestroyIN9__gnu_cxx17__normal_iteratorIPN4BEEV7ASTNodeESt6vectorIS3_SaIS3_EEEES6_EvT_S9_T0_
00000000  w    F .gnu.linkonce.t._ZNSt6vectorIN4BEEV7ASTNodeESaIS1_EE13_M_insert_auxEN9__gnu_cxx17__normal_iteratorIPS1_S3_EERKS1_	0000036e _ZNSt6vectorIN4BEEV7ASTNodeESaIS1_EE13_M_insert_auxEN9__gnu_cxx17__normal_iteratorIPS1_S3_EERKS1_
00000b50 g     F .text	00000127 _ZN4BEEV7BeevMgr20LookupOrCreateSATVarERN7MINISAT6SolverERKNS_7ASTNodeE
00000000         *UND*	00000000 _ZN7MINISAT6Solver6newVarEbb
00000000  w    F .gnu.linkonce.t._ZN9__gnu_cxx9hashtableISt4pairIKN4BEEV7ASTNodeES3_ES3_NS3_13ASTNodeHasherESt10_Select1stIS5_ENS3_12ASTNodeEqualESaIS3_EE5clearEv	0000011e _ZN9__gnu_cxx9hashtableISt4pairIKN4BEEV7ASTNodeES3_ES3_NS3_13ASTNodeHasherESt10_Select1stIS5_ENS3_12ASTNodeEqualESaIS3_EE5clearEv
00000000  w    F .gnu.linkonce.t._ZN9__gnu_cxx8hash_mapIN4BEEV7ASTNodeES2_NS2_13ASTNodeHasherENS2_12ASTNodeEqualESaIS2_EEC1Ev	000000bb _ZN9__gnu_cxx8hash_mapIN4BEEV7ASTNodeES2_NS2_13ASTNodeHasherENS2_12ASTNodeEqualESaIS2_EEC1Ev
00000c80 g     F .text	000002b4 _ZN4BEEV7BeevMgr13toSATandSolveERN7MINISAT6SolverERSt6vectorIPS4_INS_7ASTNodeESaIS5_EESaIS8_EE
00000000         *UND*	00000000 _ZN4BEEV16CountersAndStatsEPKc
00000000         *UND*	00000000 _ZN7MINISAT6Solver9newClauseERKNS_3vecINS_3LitEEEbb
00000000         *UND*	00000000 _ZN7MINISAT6Solver10simplifyDBEb
00000000         *UND*	00000000 _ZN7MINISAT6Solver5solveERKNS_3vecINS_3LitEEE
00000f40 g     F .text	00000c83 _ZN4BEEV7BeevMgr17CheckBBandCNF_intERN7MINISAT6SolverENS_7ASTNodeE
00000000         *UND*	00000000 _ZN4BEEV7BeevMgr14CreateSimpFormENS_4KindERSt6vectorINS_7ASTNodeESaIS3_EE
00000000         *UND*	00000000 _ZN4BEEV7BeevMgr13CreateSimpNotERKNS_7ASTNodeE
00000000         *UND*	00000000 _ZN4BEEV10FatalErrorEPKc
00001bd0 g     F .text	000000a1 _ZN4BEEV7BeevMgr13CheckBBandCNFERN7MINISAT6SolverENS_7ASTNodeE
00001c80 g     F .text	00002b16 _ZN4BEEV7BeevMgr24ComputeFormulaUsingModelERKNS_7ASTNodeE
00000000         *UND*	00000000 _ZN4BEEV16_kind_categoriesE
00000000         *UND*	00000000 _ZN4BEEV7BeevMgr13VarSeenInTermERKNS_7ASTNodeES3_
000049f0 g     F .text	000016ca _ZN4BEEV7BeevMgr25TermToConstTermUsingModelERKNS_7ASTNodeEb
00000000         *UND*	00000000 _ZN4BEEV7BeevMgr10CreateNodeENS_4KindERKNS_7ASTNodeES4_RKSt6vectorIS2_SaIS2_EE
00000000         *UND*	00000000 _ZN4BEEV7BeevMgr16BVConstEvaluatorERKNS_7ASTNodeE
000047a0 g     F .text	00000241 _ZN4BEEV7BeevMgr19CheckCounterExampleEb
00000000         *UND*	00000000 _ZN4BEEV20check_counterexampleE
00000000         *UND*	00000000 _ZN4BEEV7BeevMgr10GetAssertsEv
00000000         *UND*	00000000 _ZN4BEEV7BeevMgr10CreateNodeENS_4KindERKSt6vectorINS_7ASTNodeESaIS3_EE
00000000         *UND*	00000000 _ZN4BEEV7BeevMgr11BVTypeCheckERKNS_7ASTNodeE
00000000         *UND*	00000000 _ZN4BEEV7BeevMgr15CreateZeroConstEj
00000000         *UND*	00000000 _ZSt4cerr
00006a60 g     F .text	00000d27 _ZN4BEEV7BeevMgr31Expand_ReadOverWrite_UsingModelERKNS_7ASTNodeEb
000060c0 g     F .text	0000034b _ZN4BEEV7BeevMgr17GetCounterExampleEbRKNS_7ASTNodeE
00006410 g     F .text	00000644 _ZN4BEEV7BeevMgr27PrintCounterExample_InOrderEb
00000000         *UND*	00000000 _ZN4BEEV20print_counterexampleE
00000000         *UND*	00000000 _ZN4BEEV28print_arrayval_declaredorderE
00000000         *UND*	00000000 _ZNK4BEEV7ASTNode7GetNameEv
00000000         *UND*	00000000 _ZNSsC1EPKcRKSaIcE
00000000         *UND*	00000000 _ZNSs12_M_leak_hardEv
00000000         *UND*	00000000 _ZNKSs4findEcj
00000000         *UND*	00000000 _ZNSsC1ERKSsjj
00000000         *UND*	00000000 __strtol_internal
00000000         *UND*	00000000 _ZN4BEEV7BeevMgr13CreateBVConstEjy
00000000         *UND*	00000000 _ZNK4BEEV7ASTNode10GetBVConstEv
00000000         *UND*	00000000 _ZN4BEEV7BeevMgr18CreateSimplifiedEQERKNS_7ASTNodeES3_
00007790 g     F .text	00000ba4 _ZN4BEEV7BeevMgr23ConstructCounterExampleERN7MINISAT6SolverE
00000000         *UND*	00000000 _ZN4BEEV24construct_counterexampleE
00000000         *UND*	00000000 _ZN4BEEV7BeevMgr31CopySolverMap_To_CounterExampleEv
00000000         *UND*	00000000 _ZN4BEEV7BeevMgr20CheckSubstitutionMapERKNS_7ASTNodeE
00000000         *UND*	00000000 srand
00000000         *UND*	00000000 rand
00008340 g     F .text	00000474 _ZN4BEEV7BeevMgr19PrintCounterExampleEbRSo
000087c0 g     F .text	0000048a _ZN4BEEV7BeevMgr19CallSAT_ResultCheckERN7MINISAT6SolverERKNS_7ASTNodeES6_
00000000         *UND*	00000000 _ZN4BEEV7BeevMgr6BBFormERKNS_7ASTNodeE
00000000         *UND*	00000000 _ZN4BEEV7BeevMgr5ToCNFERKNS_7ASTNodeE
00000000         *UND*	00000000 _ZN4BEEV7BeevMgr16DeleteClauseListEPSt6vectorIPS1_INS_7ASTNodeESaIS2_EESaIS5_EE
00008c50 g     F .text	00000f14 _ZN4BEEV7BeevMgr28SATBased_ArrayReadRefinementERN7MINISAT6SolverERKNS_7ASTNodeES6_
00000000         *UND*	00000000 _ZN4BEEV20arrayread_refinementE
00000000         *UND*	00000000 _ZN4BEEV7BeevMgr12ASTNodeStatsEPKcRKNS_7ASTNodeE
00009b70 g     F .text	000002e7 _ZN4BEEV7BeevMgr24GetTrueCounterExampleFstEv
00009e60 g     F .text	00000379 _ZN4BEEV7BeevMgr24GetTrueCounterExampleSndEv
0000a1e0 g     F .text	00000174 _ZN4BEEV7BeevMgr23Create_ArrayWriteAxiomsERKNS_7ASTNodeES3_
0000a360 g     F .text	000006d6 _ZN4BEEV7BeevMgr29SATBased_ArrayWriteRefinementERN7MINISAT6SolverERKNS_7ASTNodeE
00000000         *UND*	00000000 _ZN4BEEV7BeevMgr16TransformFormulaERKNS_7ASTNodeE
0000aa40 g     F .text	00000a21 _ZN4BEEV7BeevMgr11TopLevelSATERKNS_7ASTNodeES3_
00000000         *UND*	00000000 _ZN4BEEV7BeevMgr21CreateSubstitutionMapERKNS_7ASTNodeE
00000000         *UND*	00000000 _ZN4BEEV7BeevMgr24SimplifyFormula_TopLevelERKNS_7ASTNodeEb
00000000         *UND*	00000000 _ZN4BEEV8BVSolver15TopLevelBVSolveERKNS_7ASTNodeE
00000000         *UND*	00000000 _ZN4BEEV21arraywrite_refinementE
0000b470 g     F .text	00000cc7 _ZN4BEEV7BeevMgr31ChangeActivityLevels_Of_SATVarsERN7MINISAT6SolverE
00000000         *UND*	00000000 _ZN4BEEV26variable_activity_optimizeE
00000000         *UND*	00000000 pow
00000000         *UND*	00000000 __gxx_personality_v0



Transform.o:     file format elf32-i386

SYMBOL TABLE:
00000000 l    df *ABS*	00000000 Transform.cpp
00000000 l    d  .text	00000000 .text
00000000 l    d  .data	00000000 .data
00000000 l    d  .bss	00000000 .bss
00000000 l    d  .ctors	00000000 .ctors
00000080 l     F .text	00000010 _GLOBAL__I__ZN4BEEV7BeevMgr21TranslateSignedDivModERKNS_7ASTNodeE
00000000 l     O .bss	00000004 _ZN7MINISAT9lit_ErrorE
00000004 l     O .bss	00000004 _ZN7MINISAT9lit_UndefE
00000008 l     O .bss	00000004 _ZN7MINISAT7l_UndefE
0000000c l     O .bss	00000004 _ZN7MINISAT7l_FalseE
00000010 l     O .bss	00000004 _ZN7MINISAT6l_TrueE
00000014 l     O .bss	00000001 _ZSt8__ioinit
00000000 l    d  .rodata	00000000 .rodata
00000000 l     O .rodata	00000070 _ZN9__gnu_cxx16__stl_prime_listE
00000000 l    d  .gnu.linkonce.t._ZSt8_DestroyIPPN9__gnu_cxx15_Hashtable_nodeISt4pairIKN4BEEV7ASTNodeES4_EEESaIS8_EEvT_SB_T0_	00000000 .gnu.linkonce.t._ZSt8_DestroyIPPN9__gnu_cxx15_Hashtable_nodeISt4pairIKN4BEEV7ASTNodeES4_EEESaIS8_EEvT_SB_T0_
00000000 l    d  .gnu.linkonce.t._ZSt8_DestroyIPPN9__gnu_cxx15_Hashtable_nodeIN4BEEV7ASTNodeEEESaIS5_EEvT_S8_T0_	00000000 .gnu.linkonce.t._ZSt8_DestroyIPPN9__gnu_cxx15_Hashtable_nodeIN4BEEV7ASTNodeEEESaIS5_EEvT_S8_T0_
00000000 l    d  .gnu.linkonce.t._ZSt8_DestroyIPPN9__gnu_cxx15_Hashtable_nodeISt4pairIKN4BEEV7ASTNodeESt6vectorIS4_SaIS4_EEEEESaISB_EEvT_SE_T0_	00000000 .gnu.linkonce.t._ZSt8_DestroyIPPN9__gnu_cxx15_Hashtable_nodeISt4pairIKN4BEEV7ASTNodeESt6vectorIS4_SaIS4_EEEEESaISB_EEvT_SE_T0_
00000000 l    d  .gnu.linkonce.t._ZSt6fill_nIPPN9__gnu_cxx15_Hashtable_nodeISt4pairIKN4BEEV7ASTNodeES4_EEEjS8_ET_SA_T0_RKT1_	00000000 .gnu.linkonce.t._ZSt6fill_nIPPN9__gnu_cxx15_Hashtable_nodeISt4pairIKN4BEEV7ASTNodeES4_EEEjS8_ET_SA_T0_RKT1_
00000000 l    d  .gnu.linkonce.t._ZSt24__uninitialized_fill_n_aIPPN9__gnu_cxx15_Hashtable_nodeISt4pairIKN4BEEV7ASTNodeES4_EEEjS8_S8_EvT_T0_RKT1_SaIT2_E	00000000 .gnu.linkonce.t._ZSt24__uninitialized_fill_n_aIPPN9__gnu_cxx15_Hashtable_nodeISt4pairIKN4BEEV7ASTNodeES4_EEEjS8_S8_EvT_T0_RKT1_SaIT2_E
00000000 l    d  .gnu.linkonce.t._ZSt6fill_nIPPN9__gnu_cxx15_Hashtable_nodeISt4pairIKN4BEEV7ASTNodeESt6vectorIS4_SaIS4_EEEEEjSB_ET_SD_T0_RKT1_	00000000 .gnu.linkonce.t._ZSt6fill_nIPPN9__gnu_cxx15_Hashtable_nodeISt4pairIKN4BEEV7ASTNodeESt6vectorIS4_SaIS4_EEEEEjSB_ET_SD_T0_RKT1_
00000000 l    d  .gnu.linkonce.t._ZSt24__uninitialized_fill_n_aIPPN9__gnu_cxx15_Hashtable_nodeISt4pairIKN4BEEV7ASTNodeESt6vectorIS4_SaIS4_EEEEEjSB_SB_EvT_T0_RKT1_SaIT2_E	00000000 .gnu.linkonce.t._ZSt24__uninitialized_fill_n_aIPPN9__gnu_cxx15_Hashtable_nodeISt4pairIKN4BEEV7ASTNodeESt6vectorIS4_SaIS4_EEEEEjSB_SB_EvT_T0_RKT1_SaIT2_E
00000000 l    d  .gnu.linkonce.t._ZSt6fill_nIPPN9__gnu_cxx15_Hashtable_nodeIN4BEEV7ASTNodeEEEjS5_ET_S7_T0_RKT1_	00000000 .gnu.linkonce.t._ZSt6fill_nIPPN9__gnu_cxx15_Hashtable_nodeIN4BEEV7ASTNodeEEEjS5_ET_S7_T0_RKT1_
00000000 l    d  .gnu.linkonce.t._ZSt24__uninitialized_fill_n_aIPPN9__gnu_cxx15_Hashtable_nodeIN4BEEV7ASTNodeEEEjS5_S5_EvT_T0_RKT1_SaIT2_E	00000000 .gnu.linkonce.t._ZSt24__uninitialized_fill_n_aIPPN9__gnu_cxx15_Hashtable_nodeIN4BEEV7ASTNodeEEEjS5_S5_EvT_T0_RKT1_SaIT2_E
00000000 l     F .text	00000010 __tcf_0
00000000 l    d  .gnu.linkonce.t._ZNK4BEEV7ASTNodeixEj	00000000 .gnu.linkonce.t._ZNK4BEEV7ASTNodeixEj
00000000 l    d  .gnu.linkonce.t._ZSt11lower_boundIPKmmET_S2_S2_RKT0_	00000000 .gnu.linkonce.t._ZSt11lower_boundIPKmmET_S2_S2_RKT0_
00000010 l     F .text	00000070 _Z41__static_initialization_and_destruction_0ii
00000000 l    d  .gnu.linkonce.t._ZN9__gnu_cxx9hashtableIN4BEEV7ASTNodeES2_NS2_13ASTNodeHasherESt9_IdentityIS2_ENS2_12ASTNodeEqualESaIS2_EE22insert_unique_noresizeERKS2_	00000000 .gnu.linkonce.t._ZN9__gnu_cxx9hashtableIN4BEEV7ASTNodeES2_NS2_13ASTNodeHasherESt9_IdentityIS2_ENS2_12ASTNodeEqualESaIS2_EE22insert_unique_noresizeERKS2_
00000000 l    d  .gcc_except_table	00000000 .gcc_except_table
00000000 l    d  .gnu.linkonce.t._ZStplIcSt11char_traitsIcESaIcEESbIT_T0_T1_EPKS3_RKS6_	00000000 .gnu.linkonce.t._ZStplIcSt11char_traitsIcESaIcEESbIT_T0_T1_EPKS3_RKS6_
00000000 l    d  .gnu.linkonce.t._ZN9__gnu_cxx9hashtableISt4pairIKN4BEEV7ASTNodeES3_ES3_NS3_13ASTNodeHasherESt10_Select1stIS5_ENS3_12ASTNodeEqualESaIS3_EE6resizeEj	00000000 .gnu.linkonce.t._ZN9__gnu_cxx9hashtableISt4pairIKN4BEEV7ASTNodeES3_ES3_NS3_13ASTNodeHasherESt10_Select1stIS5_ENS3_12ASTNodeEqualESaIS3_EE6resizeEj
00000000 l    d  .gnu.linkonce.t._ZSt8_DestroyIN9__gnu_cxx17__normal_iteratorIPN4BEEV7ASTNodeESt6vectorIS3_SaIS3_EEEES6_EvT_S9_T0_	00000000 .gnu.linkonce.t._ZSt8_DestroyIN9__gnu_cxx17__normal_iteratorIPN4BEEV7ASTNodeESt6vectorIS3_SaIS3_EEEES6_EvT_S9_T0_
00000000 l    d  .gnu.linkonce.t._ZSt8_DestroyIPN4BEEV7ASTNodeESaIS1_EEvT_S4_T0_	00000000 .gnu.linkonce.t._ZSt8_DestroyIPN4BEEV7ASTNodeESaIS1_EEvT_S4_T0_
00000000 l    d  .gnu.linkonce.t._ZNSt6vectorIN4BEEV7ASTNodeESaIS1_EED1Ev	00000000 .gnu.linkonce.t._ZNSt6vectorIN4BEEV7ASTNodeESaIS1_EED1Ev
00000000 l    d  .gnu.linkonce.t._ZN9__gnu_cxx9hashtableISt4pairIKN4BEEV7ASTNodeES3_ES3_NS3_13ASTNodeHasherESt10_Select1stIS5_ENS3_12ASTNodeEqualESaIS3_EE14find_or_insertERKS5_	00000000 .gnu.linkonce.t._ZN9__gnu_cxx9hashtableISt4pairIKN4BEEV7ASTNodeES3_ES3_NS3_13ASTNodeHasherESt10_Select1stIS5_ENS3_12ASTNodeEqualESaIS3_EE14find_or_insertERKS5_
00000000 l    d  .rodata.str1.1	00000000 .rodata.str1.1
00000000 l    d  .gnu.linkonce.t._ZNSt6vectorIN4BEEV7ASTNodeESaIS1_EE13_M_insert_auxEN9__gnu_cxx17__normal_iteratorIPS1_S3_EERKS1_	00000000 .gnu.linkonce.t._ZNSt6vectorIN4BEEV7ASTNodeESaIS1_EE13_M_insert_auxEN9__gnu_cxx17__normal_iteratorIPS1_S3_EERKS1_
00000000 l    d  .gnu.linkonce.t._ZN9__gnu_cxx9hashtableIN4BEEV7ASTNodeES2_NS2_13ASTNodeHasherESt9_IdentityIS2_ENS2_12ASTNodeEqualESaIS2_EE6resizeEj	00000000 .gnu.linkonce.t._ZN9__gnu_cxx9hashtableIN4BEEV7ASTNodeES2_NS2_13ASTNodeHasherESt9_IdentityIS2_ENS2_12ASTNodeEqualESaIS2_EE6resizeEj
00000000 l    d  .gnu.linkonce.t._ZNSt6vectorIN4BEEV7ASTNodeESaIS1_EEC1ERKS3_	00000000 .gnu.linkonce.t._ZNSt6vectorIN4BEEV7ASTNodeESaIS1_EEC1ERKS3_
00000000 l    d  .gnu.linkonce.t._ZN9__gnu_cxx9hashtableISt4pairIKN4BEEV7ASTNodeESt6vectorIS3_SaIS3_EEES3_NS3_13ASTNodeHasherESt10_Select1stIS8_ENS3_12ASTNodeEqualESaIS7_EE6resizeEj	00000000 .gnu.linkonce.t._ZN9__gnu_cxx9hashtableISt4pairIKN4BEEV7ASTNodeESt6vectorIS3_SaIS3_EEES3_NS3_13ASTNodeHasherESt10_Select1stIS8_ENS3_12ASTNodeEqualESaIS7_EE6resizeEj
00000000 l    d  .gnu.linkonce.t._ZN9__gnu_cxx9hashtableISt4pairIKN4BEEV7ASTNodeESt6vectorIS3_SaIS3_EEES3_NS3_13ASTNodeHasherESt10_Select1stIS8_ENS3_12ASTNodeEqualESaIS7_EE14find_or_insertERKS8_	00000000 .gnu.linkonce.t._ZN9__gnu_cxx9hashtableISt4pairIKN4BEEV7ASTNodeESt6vectorIS3_SaIS3_EEES3_NS3_13ASTNodeHasherESt10_Select1stIS8_ENS3_12ASTNodeEqualESaIS7_EE14find_or_insertERKS8_
00000000 l    d  .rodata.str1.4	00000000 .rodata.str1.4
00000000 l    d  .eh_frame	00000000 .eh_frame
00000000 l    d  .note.GNU-stack	00000000 .note.GNU-stack
00000000 l    d  .comment	00000000 .comment
00000000 l    d  .group	00000000 .group
00000000 l    d  .group	00000000 .group
00000000 l    d  .group	00000000 .group
00000000 l    d  .group	00000000 .group
00000000 l    d  .group	00000000 .group
00000000 l    d  .group	00000000 .group
00000000 l    d  .group	00000000 .group
00000000 l    d  .group	00000000 .group
00000000 l    d  .group	00000000 .group
00000000 l    d  .group	00000000 .group
00000000 l    d  .group	00000000 .group
00000000 l    d  .group	00000000 .group
00000000 l    d  .group	00000000 .group
00000000 l    d  .group	00000000 .group
00000000 l    d  .group	00000000 .group
00000000 l    d  .group	00000000 .group
00000000 l    d  .group	00000000 .group
00000000 l    d  .group	00000000 .group
00000000 l    d  .group	00000000 .group
00000000 l    d  .group	00000000 .group
00000000 l    d  .group	00000000 .group
00000000 l    d  .group	00000000 .group
00000000 l    d  .group	00000000 .group
00000000  w    F .gnu.linkonce.t._ZSt8_DestroyIPPN9__gnu_cxx15_Hashtable_nodeISt4pairIKN4BEEV7ASTNodeES4_EEESaIS8_EEvT_SB_T0_	00000019 _ZSt8_DestroyIPPN9__gnu_cxx15_Hashtable_nodeISt4pairIKN4BEEV7ASTNodeES4_EEESaIS8_EEvT_SB_T0_
00000000  w    F .gnu.linkonce.t._ZSt8_DestroyIPPN9__gnu_cxx15_Hashtable_nodeIN4BEEV7ASTNodeEEESaIS5_EEvT_S8_T0_	00000019 _ZSt8_DestroyIPPN9__gnu_cxx15_Hashtable_nodeIN4BEEV7ASTNodeEEESaIS5_EEvT_S8_T0_
00000000  w    F .gnu.linkonce.t._ZSt8_DestroyIPPN9__gnu_cxx15_Hashtable_nodeISt4pairIKN4BEEV7ASTNodeESt6vectorIS4_SaIS4_EEEEESaISB_EEvT_SE_T0_	00000019 _ZSt8_DestroyIPPN9__gnu_cxx15_Hashtable_nodeISt4pairIKN4BEEV7ASTNodeESt6vectorIS4_SaIS4_EEEEESaISB_EEvT_SE_T0_
00000000  w    F .gnu.linkonce.t._ZSt6fill_nIPPN9__gnu_cxx15_Hashtable_nodeISt4pairIKN4BEEV7ASTNodeES4_EEEjS8_ET_SA_T0_RKT1_	00000024 _ZSt6fill_nIPPN9__gnu_cxx15_Hashtable_nodeISt4pairIKN4BEEV7ASTNodeES4_EEEjS8_ET_SA_T0_RKT1_
00000000  w    F .gnu.linkonce.t._ZSt24__uninitialized_fill_n_aIPPN9__gnu_cxx15_Hashtable_nodeISt4pairIKN4BEEV7ASTNodeES4_EEEjS8_S8_EvT_T0_RKT1_SaIT2_E	00000009 _ZSt24__uninitialized_fill_n_aIPPN9__gnu_cxx15_Hashtable_nodeISt4pairIKN4BEEV7ASTNodeES4_EEEjS8_S8_EvT_T0_RKT1_SaIT2_E
00000000  w    F .gnu.linkonce.t._ZSt6fill_nIPPN9__gnu_cxx15_Hashtable_nodeISt4pairIKN4BEEV7ASTNodeESt6vectorIS4_SaIS4_EEEEEjSB_ET_SD_T0_RKT1_	00000024 _ZSt6fill_nIPPN9__gnu_cxx15_Hashtable_nodeISt4pairIKN4BEEV7ASTNodeESt6vectorIS4_SaIS4_EEEEEjSB_ET_SD_T0_RKT1_
00000000  w    F .gnu.linkonce.t._ZSt24__uninitialized_fill_n_aIPPN9__gnu_cxx15_Hashtable_nodeISt4pairIKN4BEEV7ASTNodeESt6vectorIS4_SaIS4_EEEEEjSB_SB_EvT_T0_RKT1_SaIT2_E	00000009 _ZSt24__uninitialized_fill_n_aIPPN9__gnu_cxx15_Hashtable_nodeISt4pairIKN4BEEV7ASTNodeESt6vectorIS4_SaIS4_EEEEEjSB_SB_EvT_T0_RKT1_SaIT2_E
00000000  w    F .gnu.linkonce.t._ZSt6fill_nIPPN9__gnu_cxx15_Hashtable_nodeIN4BEEV7ASTNodeEEEjS5_ET_S7_T0_RKT1_	00000024 _ZSt6fill_nIPPN9__gnu_cxx15_Hashtable_nodeIN4BEEV7ASTNodeEEEjS5_ET_S7_T0_RKT1_
00000000  w    F .gnu.linkonce.t._ZSt24__uninitialized_fill_n_aIPPN9__gnu_cxx15_Hashtable_nodeIN4BEEV7ASTNodeEEEjS5_S5_EvT_T0_RKT1_SaIT2_E	00000009 _ZSt24__uninitialized_fill_n_aIPPN9__gnu_cxx15_Hashtable_nodeIN4BEEV7ASTNodeEEEjS5_S5_EvT_T0_RKT1_SaIT2_E
00000000         *UND*	00000000 _ZNSt8ios_base4InitD1Ev
00000000  w    F .gnu.linkonce.t._ZNK4BEEV7ASTNodeixEj	0000002f _ZNK4BEEV7ASTNodeixEj
00000000         *UND*	00000000 _ZN4BEEV7ASTNodeC1ERKS0_
00000000  w    F .gnu.linkonce.t._ZSt11lower_boundIPKmmET_S2_S2_RKT0_	00000043 _ZSt11lower_boundIPKmmET_S2_S2_RKT0_
00000000         *UND*	00000000 _ZNSt8ios_base4InitC1Ev
00000000         *UND*	00000000 __dso_handle
00000000         *UND*	00000000 __cxa_atexit
00000000         *UND*	00000000 _Unwind_Resume
00000000  w    F .gnu.linkonce.t._ZN9__gnu_cxx9hashtableIN4BEEV7ASTNodeES2_NS2_13ASTNodeHasherESt9_IdentityIS2_ENS2_12ASTNodeEqualESaIS2_EE22insert_unique_noresizeERKS2_	000000e5 _ZN9__gnu_cxx9hashtableIN4BEEV7ASTNodeES2_NS2_13ASTNodeHasherESt9_IdentityIS2_ENS2_12ASTNodeEqualESaIS2_EE22insert_unique_noresizeERKS2_
00000000         *UND*	00000000 _Znwj
00000000         *UND*	00000000 __cxa_begin_catch
00000000         *UND*	00000000 _ZdlPv
00000000         *UND*	00000000 __cxa_rethrow
00000000         *UND*	00000000 __cxa_end_catch
00000000  w    F .gnu.linkonce.t._ZStplIcSt11char_traitsIcESaIcEESbIT_T0_T1_EPKS3_RKS6_	0000009e _ZStplIcSt11char_traitsIcESaIcEESbIT_T0_T1_EPKS3_RKS6_
00000000         *UND*	00000000 strlen
00000000         *UND*	00000000 _ZNSs4_Rep20_S_empty_rep_storageE
00000000         *UND*	00000000 _ZNSs7reserveEj
00000000         *UND*	00000000 _ZNSs6appendEPKcj
00000000         *UND*	00000000 _ZNSs6appendERKSs
00000000         *UND*	00000000 _ZN9__gnu_cxx18__exchange_and_addEPVii
00000000         *UND*	00000000 _ZNSs4_Rep10_M_destroyERKSaIcE
00000000  w    F .gnu.linkonce.t._ZN9__gnu_cxx9hashtableISt4pairIKN4BEEV7ASTNodeES3_ES3_NS3_13ASTNodeHasherESt10_Select1stIS5_ENS3_12ASTNodeEqualESaIS3_EE6resizeEj	00000187 _ZN9__gnu_cxx9hashtableISt4pairIKN4BEEV7ASTNodeES3_ES3_NS3_13ASTNodeHasherESt10_Select1stIS5_ENS3_12ASTNodeEqualESaIS3_EE6resizeEj
00000000         *UND*	00000000 _ZSt17__throw_bad_allocv
00000000  w    F .gnu.linkonce.t._ZSt8_DestroyIN9__gnu_cxx17__normal_iteratorIPN4BEEV7ASTNodeESt6vectorIS3_SaIS3_EEEES6_EvT_S9_T0_	00000047 _ZSt8_DestroyIN9__gnu_cxx17__normal_iteratorIPN4BEEV7ASTNodeESt6vectorIS3_SaIS3_EEEES6_EvT_S9_T0_
00000000  w    F .gnu.linkonce.t._ZSt8_DestroyIPN4BEEV7ASTNodeESaIS1_EEvT_S4_T0_	00000047 _ZSt8_DestroyIPN4BEEV7ASTNodeESaIS1_EEvT_S4_T0_
00000000  w    F .gnu.linkonce.t._ZNSt6vectorIN4BEEV7ASTNodeESaIS1_EED1Ev	00000054 _ZNSt6vectorIN4BEEV7ASTNodeESaIS1_EED1Ev
00000000  w    F .gnu.linkonce.t._ZN9__gnu_cxx9hashtableISt4pairIKN4BEEV7ASTNodeES3_ES3_NS3_13ASTNodeHasherESt10_Select1stIS5_ENS3_12ASTNodeEqualESaIS3_EE14find_or_insertERKS5_	00000115 _ZN9__gnu_cxx9hashtableISt4pairIKN4BEEV7ASTNodeES3_ES3_NS3_13ASTNodeHasherESt10_Select1stIS5_ENS3_12ASTNodeEqualESaIS3_EE14find_or_insertERKS5_
00000000  w    F .gnu.linkonce.t._ZNSt6vectorIN4BEEV7ASTNodeESaIS1_EE13_M_insert_auxEN9__gnu_cxx17__normal_iteratorIPS1_S3_EERKS1_	0000036e _ZNSt6vectorIN4BEEV7ASTNodeESaIS1_EE13_M_insert_auxEN9__gnu_cxx17__normal_iteratorIPS1_S3_EERKS1_
00000000         *UND*	00000000 _ZSt20__throw_length_errorPKc
00000000  w    F .gnu.linkonce.t._ZN9__gnu_cxx9hashtableIN4BEEV7ASTNodeES2_NS2_13ASTNodeHasherESt9_IdentityIS2_ENS2_12ASTNodeEqualESaIS2_EE6resizeEj	00000187 _ZN9__gnu_cxx9hashtableIN4BEEV7ASTNodeES2_NS2_13ASTNodeHasherESt9_IdentityIS2_ENS2_12ASTNodeEqualESaIS2_EE6resizeEj
00000000  w    F .gnu.linkonce.t._ZNSt6vectorIN4BEEV7ASTNodeESaIS1_EEC1ERKS3_	0000011c _ZNSt6vectorIN4BEEV7ASTNodeESaIS1_EEC1ERKS3_
00000000  w    F .gnu.linkonce.t._ZN9__gnu_cxx9hashtableISt4pairIKN4BEEV7ASTNodeESt6vectorIS3_SaIS3_EEES3_NS3_13ASTNodeHasherESt10_Select1stIS8_ENS3_12ASTNodeEqualESaIS7_EE6resizeEj	00000187 _ZN9__gnu_cxx9hashtableISt4pairIKN4BEEV7ASTNodeESt6vectorIS3_SaIS3_EEES3_NS3_13ASTNodeHasherESt10_Select1stIS8_ENS3_12ASTNodeEqualESaIS7_EE6resizeEj
00000000  w    F .gnu.linkonce.t._ZN9__gnu_cxx9hashtableISt4pairIKN4BEEV7ASTNodeESt6vectorIS3_SaIS3_EEES3_NS3_13ASTNodeHasherESt10_Select1stIS8_ENS3_12ASTNodeEqualESaIS7_EE14find_or_insertERKS8_	00000115 _ZN9__gnu_cxx9hashtableISt4pairIKN4BEEV7ASTNodeESt6vectorIS3_SaIS3_EEES3_NS3_13ASTNodeHasherESt10_Select1stIS8_ENS3_12ASTNodeEqualESaIS7_EE14find_or_insertERKS8_
00000090 g     F .text	000019fd _ZN4BEEV7BeevMgr21TranslateSignedDivModERKNS_7ASTNodeE
00000000         *UND*	00000000 _ZN4BEEV10FatalErrorEPKcRKNS_7ASTNodeEi
00000000         *UND*	00000000 _ZN4BEEV7BeevMgr13CreateBVConstEjy
00000000         *UND*	00000000 _ZN4BEEV7BeevMgr15CreateZeroConstEj
00000000         *UND*	00000000 _ZN4BEEV7BeevMgr14CreateOneConstEj
00000000         *UND*	00000000 _ZN4BEEV16_kind_categoriesE
00000000         *UND*	00000000 _ZN4BEEV13_empty_ASTVecE
00000000         *UND*	00000000 _ZN4BEEV7BeevMgr10CreateNodeENS_4KindERKNS_7ASTNodeES4_RKSt6vectorIS2_SaIS2_EE
00000000         *UND*	00000000 _ZN4BEEV7BeevMgr10CreateNodeENS_4KindERKNS_7ASTNodeES4_S4_RKSt6vectorIS2_SaIS2_EE
00000000         *UND*	00000000 _ZN4BEEV7BeevMgr10CreateNodeENS_4KindERKNS_7ASTNodeERKSt6vectorIS2_SaIS2_EE
00000000         *UND*	00000000 _ZN4BEEV7BeevMgr21SimplifyTerm_TopLevelERKNS_7ASTNodeE
00001a90 g     F .text	00000a79 _ZN4BEEV7BeevMgr13TransformTermERKNS_7ASTNodeE
00000000         *UND*	00000000 _ZN4BEEV7BeevMgr10CreateNodeENS_4KindERKSt6vectorINS_7ASTNodeESaIS3_EE
00000000         *UND*	00000000 _ZSt4cerr
00000000         *UND*	00000000 _ZStlsISt11char_traitsIcEERSt13basic_ostreamIcT_ES5_PKc
00000000         *UND*	00000000 _ZNK4BEEV7ASTNode9LispPrintERSoi
00000000         *UND*	00000000 _ZSt4endlIcSt11char_traitsIcEERSt13basic_ostreamIT_T0_ES6_
00002510 g     F .text	00000bda _ZN4BEEV7BeevMgr16TransformFormulaERKNS_7ASTNodeE
00000000         *UND*	00000000 _ZN4BEEV7BeevMgr23CreateSimplifiedTermITEERKNS_7ASTNodeES3_S3_
000030f0 g     F .text	0000240c _ZN4BEEV7BeevMgr14TransformArrayERKNS_7ASTNodeE
00000000         *UND*	00000000 _ZNSolsEm
00000000         *UND*	00000000 _ZN4BEEV7BeevMgr18CreateSimplifiedEQERKNS_7ASTNodeES3_
00000000         *UND*	00000000 _ZN4BEEV7BeevMgr11BVTypeCheckERKNS_7ASTNodeE
00000000         *UND*	00000000 _ZN4BEEV7BeevMgr20CheckSubstitutionMapERKNS_7ASTNodeERS1_
00000000         *UND*	00000000 _ZN4BEEV20arrayread_refinementE
00000000         *UND*	00000000 _ZNK4BEEV7ASTNode7GetNameEv
00000000         *UND*	00000000 _ZNSsC1EPKcRKSaIcE
00000000         *UND*	00000000 sprintf
00000000         *UND*	00000000 _ZN4BEEV7BeevMgr12CreateSymbolEPKc
00000000         *UND*	00000000 __gxx_personality_v0



Simplifier.o:     file format elf32-i386

SYMBOL TABLE:
00000000 l    df *ABS*	00000000 Simplifier.C
00000000 l    d  .text	00000000 .text
00000000 l    d  .data	00000000 .data
00000000 l    d  .bss	00000000 .bss
00000000 l    d  .ctors	00000000 .ctors
00000220 l     F .text	00000010 _GLOBAL__I__ZN7MINISAT6Solver20assymmetricBranchingERNS_6ClauseE
00000000 l     O .bss	00000001 _ZSt8__ioinit
00000004 l     O .bss	00000004 _ZN7MINISAT9lit_ErrorE
00000008 l     O .bss	00000004 _ZN7MINISAT9lit_UndefE
0000000c l     O .bss	00000004 _ZN7MINISAT7l_UndefE
00000010 l     O .bss	00000004 _ZN7MINISAT7l_FalseE
00000014 l     O .bss	00000004 _ZN7MINISAT6l_TrueE
00000000 l    d  .rodata	00000000 .rodata
00000000 l     O .rodata	0000003e _ZZN7MINISAT3vecIPNS_6ClauseEE6shrinkEiE19__PRETTY_FUNCTION__
00000000 l    d  .rodata.str1.1	00000000 .rodata.str1.1
00000000 l    d  .gnu.linkonce.t._ZN7MINISAT3vecIPNS_6ClauseEE6shrinkEi	00000000 .gnu.linkonce.t._ZN7MINISAT3vecIPNS_6ClauseEE6shrinkEi
0000003e l     O .rodata	0000001a _ZZN7MINISAT5checkEbE19__PRETTY_FUNCTION__
00000000 l    d  .gnu.linkonce.t._ZN7MINISAT5checkEb	00000000 .gnu.linkonce.t._ZN7MINISAT5checkEb
00000000 l    d  .gnu.linkonce.t._ZN7MINISAT3vecIPNS_6ClauseEE5clearEb	00000000 .gnu.linkonce.t._ZN7MINISAT3vecIPNS_6ClauseEE5clearEb
00000000 l    d  .gnu.linkonce.t._ZN7MINISAT3vecINS_3LitEE5clearEb	00000000 .gnu.linkonce.t._ZN7MINISAT3vecINS_3LitEE5clearEb
00000060 l     O .rodata	0000002c _ZZN7MINISAT7xmallocIcEEPT_jE19__PRETTY_FUNCTION__
00000000 l     F .text	00000040 _ZN7MINISAT7xmallocIcEEPT_j
000000a0 l     O .rodata	00000030 _ZZN7MINISAT8xreallocIiEEPT_S2_jE19__PRETTY_FUNCTION__
00000040 l     F .text	0000004b _ZN7MINISAT8xreallocIiEEPT_S2_j
000000e0 l     O .rodata	0000003d _ZZN7MINISAT8xreallocIPNS_6ClauseEEEPT_S4_jE19__PRETTY_FUNCTION__
00000090 l     F .text	0000004b _ZN7MINISAT8xreallocIPNS_6ClauseEEEPT_S4_j
00000120 l     O .rodata	00000039 _ZZN7MINISAT8xreallocINS_3LitEEEPT_S3_jE19__PRETTY_FUNCTION__
000000e0 l     F .text	0000004b _ZN7MINISAT8xreallocINS_3LitEEEPT_S3_j
00000130 l     F .text	00000010 __tcf_0
00000000 l    d  .gnu.linkonce.t._ZN7MINISAT4findINS_3vecINS_3LitEEES2_EEbRT_RKT0_	00000000 .gnu.linkonce.t._ZN7MINISAT4findINS_3vecINS_3LitEEES2_EEbRT_RKT0_
00000000 l    d  .gnu.linkonce.t._ZN7MINISAT4findINS_6ClauseENS_3LitEEEbRT_RKT0_	00000000 .gnu.linkonce.t._ZN7MINISAT4findINS_6ClauseENS_3LitEEEbRT_RKT0_
00000140 l     F .text	00000069 _ZN7MINISAT11printClauseINS_6ClauseEEEvRKT_
000001b0 l     F .text	0000006e _Z41__static_initialization_and_destruction_0ii
00000160 l     O .rodata	0000005b _ZZN7MINISAT6removeINS_3vecINS_3LitEEES2_EEvRT_RKT0_E19__PRETTY_FUNCTION__
00000000 l    d  .gnu.linkonce.t._ZN7MINISAT6removeINS_3vecINS_3LitEEES2_EEvRT_RKT0_	00000000 .gnu.linkonce.t._ZN7MINISAT6removeINS_3vecINS_3LitEEES2_EEvRT_RKT0_
000001c0 l     O .rodata	0000003a _ZZN7MINISAT3vecINS_3LitEE6shrinkEiE19__PRETTY_FUNCTION__
00000000 l    d  .gnu.linkonce.t._ZN7MINISAT3vecINS_3LitEE6shrinkEi	00000000 .gnu.linkonce.t._ZN7MINISAT3vecINS_3LitEE6shrinkEi
00000200 l     O .rodata	00000024 _ZZN7MINISAT6Solver11extendModelEvE19__PRETTY_FUNCTION__
00000000 l    d  .rodata.str1.4	00000000 .rodata.str1.4
00000240 l     O .rodata	0000002d _ZZN7MINISAT6Solver8cleanOccEiE19__PRETTY_FUNCTION__
00000000 l    d  .gnu.linkonce.t._ZN7MINISAT6Solver8cleanOccEi	00000000 .gnu.linkonce.t._ZN7MINISAT6Solver8cleanOccEi
00000000 l    d  .gnu.linkonce.t._ZN7MINISAT3vecIPNS_6ClauseEE4growEi	00000000 .gnu.linkonce.t._ZN7MINISAT3vecIPNS_6ClauseEE4growEi
00000000 l    d  .gnu.linkonce.t._ZN7MINISAT3vecINS_3LitEE4growEi	00000000 .gnu.linkonce.t._ZN7MINISAT3vecINS_3LitEE4growEi
00000000 l    d  .gnu.linkonce.t._ZN7MINISAT3vecIiE4growEi	00000000 .gnu.linkonce.t._ZN7MINISAT3vecIiE4growEi
00000280 l     O .rodata	0000003d _ZZN7MINISAT6Solver20assymmetricBranchingERNS_6ClauseEE19__PRETTY_FUNCTION__
00000000 l    d  .gcc_except_table	00000000 .gcc_except_table
000002c0 l     O .rodata	0000003e _ZZN7MINISAT6Solver6gatherERNS_3vecIPNS_6ClauseEEEE19__PRETTY_FUNCTION__
00000300 l     O .rodata	00000031 _ZZN7MINISAT6Solver24backwardSubsumptionCheckEvE19__PRETTY_FUNCTION__
00000340 l     O .rodata	00000050 _ZZN7MINISAT10Clause_newINS_6ClauseEEEPS1_RKT_bE19__PRETTY_FUNCTION__
000003a0 l     O .rodata	00000037 _ZZN7MINISAT6Solver12eliminateVarEibE19__PRETTY_FUNCTION__
000003e0 l     O .rodata	00000022 _ZZN7MINISAT6Solver9eliminateEvE19__PRETTY_FUNCTION__
00000000 l    d  .eh_frame	00000000 .eh_frame
00000000 l    d  .note.GNU-stack	00000000 .note.GNU-stack
00000000 l    d  .comment	00000000 .comment
00000000 l    d  .group	00000000 .group
00000000 l    d  .group	00000000 .group
00000000 l    d  .group	00000000 .group
00000000 l    d  .group	00000000 .group
00000000 l    d  .group	00000000 .group
00000000 l    d  .group	00000000 .group
00000000 l    d  .group	00000000 .group
00000000 l    d  .group	00000000 .group
00000000 l    d  .group	00000000 .group
00000000 l    d  .group	00000000 .group
00000000 l    d  .group	00000000 .group
00000000 l    d  .group	00000000 .group
00000000  w    F .gnu.linkonce.t._ZN7MINISAT3vecIPNS_6ClauseEE6shrinkEi	0000003f _ZN7MINISAT3vecIPNS_6ClauseEE6shrinkEi
00000000         *UND*	00000000 __assert_fail
00000000  w    F .gnu.linkonce.t._ZN7MINISAT5checkEb	00000026 _ZN7MINISAT5checkEb
00000000  w    F .gnu.linkonce.t._ZN7MINISAT3vecIPNS_6ClauseEE5clearEb	0000005c _ZN7MINISAT3vecIPNS_6ClauseEE5clearEb
00000000         *UND*	00000000 free
00000000  w    F .gnu.linkonce.t._ZN7MINISAT3vecINS_3LitEE5clearEb	0000005c _ZN7MINISAT3vecINS_3LitEE5clearEb
00000000         *UND*	00000000 malloc
00000000         *UND*	00000000 realloc
00000000         *UND*	00000000 _ZNSt8ios_base4InitD1Ev
00000000  w    F .gnu.linkonce.t._ZN7MINISAT4findINS_3vecINS_3LitEEES2_EEbRT_RKT0_	00000050 _ZN7MINISAT4findINS_3vecINS_3LitEEES2_EEbRT_RKT0_
00000000  w    F .gnu.linkonce.t._ZN7MINISAT4findINS_6ClauseENS_3LitEEEbRT_RKT0_	00000053 _ZN7MINISAT4findINS_6ClauseENS_3LitEEEbRT_RKT0_
00000000         *UND*	00000000 stderr
00000000         *UND*	00000000 fprintf
00000000         *UND*	00000000 fputc
00000000         *UND*	00000000 _ZNSt8ios_base4InitC1Ev
00000000         *UND*	00000000 __dso_handle
00000000         *UND*	00000000 __cxa_atexit
00000000  w    F .gnu.linkonce.t._ZN7MINISAT6removeINS_3vecINS_3LitEEES2_EEvRT_RKT0_	000000a6 _ZN7MINISAT6removeINS_3vecINS_3LitEEES2_EEvRT_RKT0_
00000000  w    F .gnu.linkonce.t._ZN7MINISAT3vecINS_3LitEE6shrinkEi	0000003f _ZN7MINISAT3vecINS_3LitEE6shrinkEi
00000230 g     F .text	00000275 _ZN7MINISAT6Solver11extendModelEv
00000000  w    F .gnu.linkonce.t._ZN7MINISAT6Solver8cleanOccEi	0000009e _ZN7MINISAT6Solver8cleanOccEi
00000000  w    F .gnu.linkonce.t._ZN7MINISAT3vecIPNS_6ClauseEE4growEi	00000078 _ZN7MINISAT3vecIPNS_6ClauseEE4growEi
00000000  w    F .gnu.linkonce.t._ZN7MINISAT3vecINS_3LitEE4growEi	00000078 _ZN7MINISAT3vecINS_3LitEE4growEi
00000000  w    F .gnu.linkonce.t._ZN7MINISAT3vecIiE4growEi	00000078 _ZN7MINISAT3vecIiE4growEi
00000000         *UND*	00000000 _Unwind_Resume
000004b0 g     F .text	000002f7 _ZN7MINISAT6Solver20assymmetricBranchingERNS_6ClauseE
00000000         *UND*	00000000 _ZNK7MINISAT6Solver9satisfiedERNS_6ClauseE
00000000         *UND*	00000000 _ZN7MINISAT6Solver7enqueueENS_3LitEPNS_6ClauseE
00000000         *UND*	00000000 _ZN7MINISAT6Solver9propagateEv
00000000         *UND*	00000000 _ZN7MINISAT6Solver11cancelUntilEi
00000000         *UND*	00000000 _ZN7MINISAT6Solver10strengthenERNS_6ClauseENS_3LitE
000007b0 g     F .text	000001b3 _ZN7MINISAT6Solver5mergeERKNS_6ClauseES3_iRNS_3vecINS_3LitEEE
00000970 g     F .text	0000020d _ZN7MINISAT6Solver6gatherERNS_3vecIPNS_6ClauseEEE
00000b80 g     F .text	000004c8 _ZN7MINISAT6Solver24backwardSubsumptionCheckEv
00000000         *UND*	00000000 _ZN7MINISAT6Solver12removeClauseERNS_6ClauseEb
00001050 g     F .text	00000a35 _ZN7MINISAT6Solver12eliminateVarEib
00000000         *UND*	00000000 _ZN7MINISAT6Solver9newClauseERKNS_3vecINS_3LitEEEbb
00000000         *UND*	00000000 fwrite
00001a90 g     F .text	000002ab _ZN7MINISAT6Solver9eliminateEv
00000000         *UND*	00000000 __gxx_personality_v0



Solver.o:     file format elf32-i386

SYMBOL TABLE:
00000000 l    df *ABS*	00000000 Solver.C
00000000 l    d  .text	00000000 .text
00000000 l    d  .data	00000000 .data
00000000 l    d  .bss	00000000 .bss
00000000 l    d  .ctors	00000000 .ctors
000004b0 l     F .text	00000010 _GLOBAL__I__ZN7MINISAT6Solver9newClauseERKNS_3vecINS_3LitEEEbb
00000000 l     O .bss	00000001 _ZSt8__ioinit
00000004 l     O .bss	00000004 _ZN7MINISAT9lit_ErrorE
00000008 l     O .bss	00000004 _ZN7MINISAT9lit_UndefE
0000000c l     O .bss	00000004 _ZN7MINISAT7l_UndefE
00000010 l     O .bss	00000004 _ZN7MINISAT7l_FalseE
00000014 l     O .bss	00000004 _ZN7MINISAT6l_TrueE
00000000 l    d  .rodata	00000000 .rodata
00000000 l     O .rodata	0000003e _ZZN7MINISAT3vecIPNS_6ClauseEE6shrinkEiE19__PRETTY_FUNCTION__
00000000 l    d  .rodata.str1.1	00000000 .rodata.str1.1
00000000 l    d  .gnu.linkonce.t._ZN7MINISAT3vecIPNS_6ClauseEE6shrinkEi	00000000 .gnu.linkonce.t._ZN7MINISAT3vecIPNS_6ClauseEE6shrinkEi
0000003e l     O .rodata	0000001a _ZZN7MINISAT5checkEbE19__PRETTY_FUNCTION__
00000000 l    d  .gnu.linkonce.t._ZN7MINISAT5checkEb	00000000 .gnu.linkonce.t._ZN7MINISAT5checkEb
00000060 l     O .rodata	00000031 _ZZN7MINISAT3vecIiE6shrinkEiE19__PRETTY_FUNCTION__
00000000 l    d  .gnu.linkonce.t._ZN7MINISAT3vecIiE6shrinkEi	00000000 .gnu.linkonce.t._ZN7MINISAT3vecIiE6shrinkEi
00000000 l    d  .gnu.linkonce.t._ZN7MINISAT3vecIiE5clearEb	00000000 .gnu.linkonce.t._ZN7MINISAT3vecIiE5clearEb
00000000 l    d  .gnu.linkonce.t._ZN7MINISAT3vecINS_3LitEE5clearEb	00000000 .gnu.linkonce.t._ZN7MINISAT3vecINS_3LitEE5clearEb
00000000 l    d  .gnu.linkonce.t._ZN7MINISAT3vecINS_5lboolEE5clearEb	00000000 .gnu.linkonce.t._ZN7MINISAT3vecINS_5lboolEE5clearEb
000000a0 l     O .rodata	0000002c _ZZN7MINISAT7xmallocIcEEPT_jE19__PRETTY_FUNCTION__
00000000 l     F .text	00000040 _ZN7MINISAT7xmallocIcEEPT_j
000000e0 l     O .rodata	00000039 _ZZN7MINISAT8xreallocINS_3LitEEEPT_S3_jE19__PRETTY_FUNCTION__
00000040 l     F .text	0000004b _ZN7MINISAT8xreallocINS_3LitEEEPT_S3_j
00000120 l     O .rodata	0000003b _ZZN7MINISAT8xreallocINS_5lboolEEEPT_S3_jE19__PRETTY_FUNCTION__
00000090 l     F .text	0000004b _ZN7MINISAT8xreallocINS_5lboolEEEPT_S3_j
00000160 l     O .rodata	00000030 _ZZN7MINISAT8xreallocIiEEPT_S2_jE19__PRETTY_FUNCTION__
000000e0 l     F .text	0000004b _ZN7MINISAT8xreallocIiEEPT_S2_j
000001a0 l     O .rodata	0000003d _ZZN7MINISAT8xreallocIPNS_6ClauseEEEPT_S4_jE19__PRETTY_FUNCTION__
00000130 l     F .text	0000004b _ZN7MINISAT8xreallocIPNS_6ClauseEEEPT_S4_j
000001e0 l     O .rodata	0000003e _ZZN7MINISAT8xreallocINS_8TrailPosEEEPT_S3_jE19__PRETTY_FUNCTION__
00000180 l     F .text	0000004b _ZN7MINISAT8xreallocINS_8TrailPosEEEPT_S3_j
00000220 l     O .rodata	00000033 _ZZN7MINISAT8xreallocIdEEPT_S2_jE19__PRETTY_FUNCTION__
000001d0 l     F .text	0000004b _ZN7MINISAT8xreallocIdEEPT_S2_j
00000260 l     O .rodata	00000031 _ZZN7MINISAT8xreallocIcEEPT_S2_jE19__PRETTY_FUNCTION__
00000220 l     F .text	00000044 _ZN7MINISAT8xreallocIcEEPT_S2_j
000002a0 l     O .rodata	0000004b _ZZN7MINISAT8xreallocINS_3vecIPNS_6ClauseEEEEEPT_S6_jE19__PRETTY_FUNCTION__
00000270 l     F .text	0000004a _ZN7MINISAT8xreallocINS_3vecIPNS_6ClauseEEEEEPT_S6_j
000002c0 l     F .text	00000010 __tcf_0
00000300 l     O .rodata	00000022 _ZZN7MINISAT6Clause6shrinkEiE19__PRETTY_FUNCTION__
00000000 l    d  .gnu.linkonce.t._ZN7MINISAT6Clause6shrinkEi	00000000 .gnu.linkonce.t._ZN7MINISAT6Clause6shrinkEi
00000000 l    d  .gnu.linkonce.t._ZN7MINISAT4findINS_6ClauseENS_3LitEEEbRT_RKT0_	00000000 .gnu.linkonce.t._ZN7MINISAT4findINS_6ClauseENS_3LitEEEbRT_RKT0_
00000000 l    d  .gnu.linkonce.t._ZN7MINISAT4findINS_3vecIPNS_6ClauseEEES3_EEbRT_RKT0_	00000000 .gnu.linkonce.t._ZN7MINISAT4findINS_3vecIPNS_6ClauseEEES3_EEbRT_RKT0_
00000340 l     O .rodata	00000063 _ZZN7MINISAT6removeINS_3vecIPNS_6ClauseEEES3_EEvRT_RKT0_E19__PRETTY_FUNCTION__
00000000 l    d  .gnu.linkonce.t._ZN7MINISAT6removeINS_3vecIPNS_6ClauseEEES3_EEvRT_RKT0_	00000000 .gnu.linkonce.t._ZN7MINISAT6removeINS_3vecIPNS_6ClauseEEES3_EEvRT_RKT0_
00000000 l    d  .rodata.cst8	00000000 .rodata.cst8
000003c0 l     O .rodata	00000049 _ZZNK7MINISAT4HeapINS_11VarOrder_ltEE6inHeapEiE19__PRETTY_FUNCTION__
00000000 l    d  .gnu.linkonce.t._ZNK7MINISAT4HeapINS_11VarOrder_ltEE6inHeapEi	00000000 .gnu.linkonce.t._ZNK7MINISAT4HeapINS_11VarOrder_ltEE6inHeapEi
00000420 l     O .rodata	00000044 _ZZNK7MINISAT4HeapINS_6ElimLtEE6inHeapEiE19__PRETTY_FUNCTION__
00000000 l    d  .gnu.linkonce.t._ZNK7MINISAT4HeapINS_6ElimLtEE6inHeapEi	00000000 .gnu.linkonce.t._ZNK7MINISAT4HeapINS_6ElimLtEE6inHeapEi
00000000 l    d  .gnu.linkonce.t._ZN7MINISAT13selectionSortIPNS_6ClauseENS_11reduceDB_ltEEEvPT_iT0_	00000000 .gnu.linkonce.t._ZN7MINISAT13selectionSortIPNS_6ClauseENS_11reduceDB_ltEEEvPT_iT0_
00000440 l     F .text	0000006e _Z41__static_initialization_and_destruction_0ii
00000480 l     O .rodata	0000003a _ZZN7MINISAT3vecINS_3LitEE6shrinkEiE19__PRETTY_FUNCTION__
00000000 l    d  .gnu.linkonce.t._ZN7MINISAT3vecINS_3LitEE6shrinkEi	00000000 .gnu.linkonce.t._ZN7MINISAT3vecINS_3LitEE6shrinkEi
00000000 l    d  .gnu.linkonce.t._ZN7MINISAT13selectionSortINS_3LitENS_16LessThan_defaultIS1_EEEEvPT_iT0_	00000000 .gnu.linkonce.t._ZN7MINISAT13selectionSortINS_3LitENS_16LessThan_defaultIS1_EEEEvPT_iT0_
00000000 l    d  .rodata.cst4	00000000 .rodata.cst4
00000000 l    d  .gnu.linkonce.t._ZN7MINISAT4sortIPNS_6ClauseENS_11reduceDB_ltEEEvPT_iT0_Rd	00000000 .gnu.linkonce.t._ZN7MINISAT4sortIPNS_6ClauseENS_11reduceDB_ltEEEvPT_iT0_Rd
00000000 l    d  .gnu.linkonce.t._ZN7MINISAT4sortIPNS_6ClauseENS_11reduceDB_ltEEEvPT_iT0_	00000000 .gnu.linkonce.t._ZN7MINISAT4sortIPNS_6ClauseENS_11reduceDB_ltEEEvPT_iT0_
00000000 l    d  .gnu.linkonce.t._ZN7MINISAT4sortIPNS_6ClauseENS_11reduceDB_ltEEEvRNS_3vecIT_EET0_	00000000 .gnu.linkonce.t._ZN7MINISAT4sortIPNS_6ClauseENS_11reduceDB_ltEEEvRNS_3vecIT_EET0_
00000000 l    d  .gnu.linkonce.t._ZN7MINISAT4sortINS_3LitENS_16LessThan_defaultIS1_EEEEvPT_iT0_Rd	00000000 .gnu.linkonce.t._ZN7MINISAT4sortINS_3LitENS_16LessThan_defaultIS1_EEEEvPT_iT0_Rd
00000000 l    d  .gnu.linkonce.t._ZN7MINISAT4sortINS_3LitENS_16LessThan_defaultIS1_EEEEvPT_iT0_	00000000 .gnu.linkonce.t._ZN7MINISAT4sortINS_3LitENS_16LessThan_defaultIS1_EEEEvPT_iT0_
00000000 l    d  .gnu.linkonce.t._ZN7MINISAT10sortUniqueINS_3LitENS_16LessThan_defaultIS1_EEEEvPT_RiT0_	00000000 .gnu.linkonce.t._ZN7MINISAT10sortUniqueINS_3LitENS_16LessThan_defaultIS1_EEEEvPT_RiT0_
00000000 l    d  .gnu.linkonce.t._ZN7MINISAT10sortUniqueINS_3LitENS_16LessThan_defaultIS1_EEEEvRNS_3vecIT_EET0_	00000000 .gnu.linkonce.t._ZN7MINISAT10sortUniqueINS_3LitENS_16LessThan_defaultIS1_EEEEvRNS_3vecIT_EET0_
00000000 l    d  .gnu.linkonce.t._ZN7MINISAT10sortUniqueINS_3LitEEEvRNS_3vecIT_EE	00000000 .gnu.linkonce.t._ZN7MINISAT10sortUniqueINS_3LitEEEvRNS_3vecIT_EE
000004c0 l     O .rodata	00000050 _ZZN7MINISAT6removeINS_6ClauseENS_3LitEEEvRT_RKT0_E19__PRETTY_FUNCTION__
00000000 l    d  .gnu.linkonce.t._ZN7MINISAT6removeINS_6ClauseENS_3LitEEEvRT_RKT0_	00000000 .gnu.linkonce.t._ZN7MINISAT6removeINS_6ClauseENS_3LitEEEvRT_RKT0_
00000000 l    d  .gnu.linkonce.t._ZN7MINISAT3vecIcE4growEi	00000000 .gnu.linkonce.t._ZN7MINISAT3vecIcE4growEi
00000000 l    d  .gnu.linkonce.t._ZN7MINISAT3vecINS0_IPNS_6ClauseEEEE4growEi	00000000 .gnu.linkonce.t._ZN7MINISAT3vecINS0_IPNS_6ClauseEEEE4growEi
00000000 l    d  .gnu.linkonce.t._ZN7MINISAT3vecINS_8TrailPosEE4growEi	00000000 .gnu.linkonce.t._ZN7MINISAT3vecINS_8TrailPosEE4growEi
00000000 l    d  .gnu.linkonce.t._ZN7MINISAT3vecIdE4growEi	00000000 .gnu.linkonce.t._ZN7MINISAT3vecIdE4growEi
00000000 l    d  .gnu.linkonce.t._ZN7MINISAT3vecIiE4growEi	00000000 .gnu.linkonce.t._ZN7MINISAT3vecIiE4growEi
00000000 l    d  .gnu.linkonce.t._ZN7MINISAT3vecIiE6growToEiRKi	00000000 .gnu.linkonce.t._ZN7MINISAT3vecIiE6growToEiRKi
00000520 l     O .rodata	00000046 _ZZN7MINISAT4HeapINS_11VarOrder_ltEE9setBoundsEiE19__PRETTY_FUNCTION__
00000000 l    d  .gnu.linkonce.t._ZN7MINISAT4HeapINS_11VarOrder_ltEE9setBoundsEi	00000000 .gnu.linkonce.t._ZN7MINISAT4HeapINS_11VarOrder_ltEE9setBoundsEi
00000580 l     O .rodata	00000041 _ZZN7MINISAT4HeapINS_6ElimLtEE9setBoundsEiE19__PRETTY_FUNCTION__
00000000 l    d  .gnu.linkonce.t._ZN7MINISAT4HeapINS_6ElimLtEE9setBoundsEi	00000000 .gnu.linkonce.t._ZN7MINISAT4HeapINS_6ElimLtEE9setBoundsEi
00000000 l    d  .gnu.linkonce.t._ZN7MINISAT3vecIPNS_6ClauseEE4growEi	00000000 .gnu.linkonce.t._ZN7MINISAT3vecIPNS_6ClauseEE4growEi
00000000 l    d  .gnu.linkonce.t._ZN7MINISAT3vecINS_3LitEE4growEi	00000000 .gnu.linkonce.t._ZN7MINISAT3vecINS_3LitEE4growEi
00000000 l    d  .gnu.linkonce.t._ZN7MINISAT3vecINS_3LitEE6growToEi	00000000 .gnu.linkonce.t._ZN7MINISAT3vecINS_3LitEE6growToEi
00000000 l    d  .gnu.linkonce.t._ZN7MINISAT3vecINS_5lboolEE4growEi	00000000 .gnu.linkonce.t._ZN7MINISAT3vecINS_5lboolEE4growEi
00000000 l    d  .gnu.linkonce.t._ZN7MINISAT3vecINS_5lboolEE6growToEi	00000000 .gnu.linkonce.t._ZN7MINISAT3vecINS_5lboolEE6growToEi
000005e0 l     O .rodata	00000045 _ZZN7MINISAT4HeapINS_11VarOrder_ltEE8increaseEiE19__PRETTY_FUNCTION__
00000000 l    d  .gnu.linkonce.t._ZN7MINISAT4HeapINS_11VarOrder_ltEE8increaseEi	00000000 .gnu.linkonce.t._ZN7MINISAT4HeapINS_11VarOrder_ltEE8increaseEi
00000640 l     O .rodata	0000002e _ZZN7MINISAT6Solver9propagateEvE19__PRETTY_FUNCTION__
00000680 l     O .rodata	0000002d _ZZN7MINISAT6Solver8cleanOccEiE19__PRETTY_FUNCTION__
00000000 l    d  .gnu.linkonce.t._ZN7MINISAT6Solver8cleanOccEi	00000000 .gnu.linkonce.t._ZN7MINISAT6Solver8cleanOccEi
00000000 l    d  .gnu.linkonce.t._ZN7MINISAT4HeapINS_11VarOrder_ltEE12heapPropertyEi	00000000 .gnu.linkonce.t._ZN7MINISAT4HeapINS_11VarOrder_ltEE12heapPropertyEi
000006c0 l     O .rodata	00000060 _ZZN7MINISAT4HeapINS_11VarOrder_ltEE6filterINS_9VarFilterEEEvRKT_E19__PRETTY_FUNCTION__
00000000 l    d  .gnu.linkonce.t._ZN7MINISAT4HeapINS_11VarOrder_ltEE6filterINS_9VarFilterEEEvRKT_	00000000 .gnu.linkonce.t._ZN7MINISAT4HeapINS_11VarOrder_ltEE6filterINS_9VarFilterEEEvRKT_
00000720 l     O .rodata	0000003e _ZZN7MINISAT4HeapINS_6ElimLtEE6insertEiE19__PRETTY_FUNCTION__
00000760 l     O .rodata	0000003b _ZZN7MINISAT6Solver12removeClauseERNS_6ClauseEbE19__PRETTY_FUNCTION__
00000000 l    d  .rodata.str1.4	00000000 .rodata.str1.4
000007a0 l     O .rodata	00000027 _ZZN7MINISAT6Solver10simplifyDBEbE19__PRETTY_FUNCTION__
000007e0 l     O .rodata	00000043 _ZZN7MINISAT4HeapINS_11VarOrder_ltEE6insertEiE19__PRETTY_FUNCTION__
00000000 l    d  .gnu.linkonce.t._ZN7MINISAT4HeapINS_6ElimLtEE6insertEi	00000000 .gnu.linkonce.t._ZN7MINISAT4HeapINS_6ElimLtEE6insertEi
00000000 l    d  .gnu.linkonce.t._ZN7MINISAT4HeapINS_11VarOrder_ltEE6insertEi	00000000 .gnu.linkonce.t._ZN7MINISAT4HeapINS_11VarOrder_ltEE6insertEi
00000840 l     O .rodata	0000003c _ZZN7MINISAT6Solver17analyze_removableENS_3LitEjE19__PRETTY_FUNCTION__
00000880 l     O .rodata	00000053 _ZZN7MINISAT6Solver7analyzeEPNS_6ClauseERNS_3vecINS_3LitEEERiE19__PRETTY_FUNCTION__
000008e0 l     O .rodata	0000004e _ZZN7MINISAT6Solver12analyzeFinalENS_3LitERNS_3vecIS1_EEE19__PRETTY_FUNCTION__
00000940 l     O .rodata	0000005b _ZZN7MINISAT10Clause_newINS_3vecINS_3LitEEEEEPNS_6ClauseERKT_bE19__PRETTY_FUNCTION__
000009a0 l     O .rodata	0000004f _ZZN7MINISAT6Solver9newClauseERKNS_3vecINS_3LitEEEbbE19__PRETTY_FUNCTION__
00000000 l    d  .gcc_except_table	00000000 .gcc_except_table
00000a00 l     O .rodata	00000031 _ZZN7MINISAT6Solver6searchEiiE19__PRETTY_FUNCTION__
00000a40 l     O .rodata	0000003f _ZZN7MINISAT6Solver5solveERKNS_3vecINS_3LitEEEE19__PRETTY_FUNCTION__
00000a80 l     O .rodata	00000041 _ZZN7MINISAT6Solver10strengthenERNS_6ClauseENS_3LitEE19__PRETTY_FUNCTION__
00000000 l    d  .eh_frame	00000000 .eh_frame
00000000 l    d  .note.GNU-stack	00000000 .note.GNU-stack
00000000 l    d  .comment	00000000 .comment
00000000 l    d  .group	00000000 .group
00000000 l    d  .group	00000000 .group
00000000 l    d  .group	00000000 .group
00000000 l    d  .group	00000000 .group
00000000 l    d  .group	00000000 .group
00000000 l    d  .group	00000000 .group
00000000 l    d  .group	00000000 .group
00000000 l    d  .group	00000000 .group
00000000 l    d  .group	00000000 .group
00000000 l    d  .group	00000000 .group
00000000 l    d  .group	00000000 .group
00000000 l    d  .group	00000000 .group
00000000 l    d  .group	00000000 .group
00000000 l    d  .group	00000000 .group
00000000 l    d  .group	00000000 .group
00000000 l    d  .group	00000000 .group
00000000 l    d  .group	00000000 .group
00000000 l    d  .group	00000000 .group
00000000 l    d  .group	00000000 .group
00000000 l    d  .group	00000000 .group
00000000 l    d  .group	00000000 .group
00000000 l    d  .group	00000000 .group
00000000 l    d  .group	00000000 .group
00000000 l    d  .group	00000000 .group
00000000 l    d  .group	00000000 .group
00000000 l    d  .group	00000000 .group
00000000 l    d  .group	00000000 .group
00000000 l    d  .group	00000000 .group
00000000 l    d  .group	00000000 .group
00000000 l    d  .group	00000000 .group
00000000 l    d  .group	00000000 .group
00000000 l    d  .group	00000000 .group
00000000 l    d  .group	00000000 .group
00000000 l    d  .group	00000000 .group
00000000 l    d  .group	00000000 .group
00000000 l    d  .group	00000000 .group
00000000 l    d  .group	00000000 .group
00000000 l    d  .group	00000000 .group
00000000 l    d  .group	00000000 .group
00000000 l    d  .group	00000000 .group
00000000 l    d  .group	00000000 .group
00000000 l    d  .group	00000000 .group
00000000 l    d  .group	00000000 .group
00000000  w    F .gnu.linkonce.t._ZN7MINISAT3vecIPNS_6ClauseEE6shrinkEi	0000003f _ZN7MINISAT3vecIPNS_6ClauseEE6shrinkEi
00000000         *UND*	00000000 __assert_fail
00000000  w    F .gnu.linkonce.t._ZN7MINISAT5checkEb	00000026 _ZN7MINISAT5checkEb
00000000  w    F .gnu.linkonce.t._ZN7MINISAT3vecIiE6shrinkEi	0000003f _ZN7MINISAT3vecIiE6shrinkEi
00000000  w    F .gnu.linkonce.t._ZN7MINISAT3vecIiE5clearEb	0000005c _ZN7MINISAT3vecIiE5clearEb
00000000         *UND*	00000000 free
00000000  w    F .gnu.linkonce.t._ZN7MINISAT3vecINS_3LitEE5clearEb	0000005c _ZN7MINISAT3vecINS_3LitEE5clearEb
00000000  w    F .gnu.linkonce.t._ZN7MINISAT3vecINS_5lboolEE5clearEb	0000005c _ZN7MINISAT3vecINS_5lboolEE5clearEb
00000000         *UND*	00000000 malloc
00000000         *UND*	00000000 realloc
00000000         *UND*	00000000 _ZNSt8ios_base4InitD1Ev
00000000  w    F .gnu.linkonce.t._ZN7MINISAT6Clause6shrinkEi	0000003d _ZN7MINISAT6Clause6shrinkEi
00000000  w    F .gnu.linkonce.t._ZN7MINISAT4findINS_6ClauseENS_3LitEEEbRT_RKT0_	00000053 _ZN7MINISAT4findINS_6ClauseENS_3LitEEEbRT_RKT0_
00000000  w    F .gnu.linkonce.t._ZN7MINISAT4findINS_3vecIPNS_6ClauseEEES3_EEbRT_RKT0_	00000046 _ZN7MINISAT4findINS_3vecIPNS_6ClauseEEES3_EEbRT_RKT0_
00000000  w    F .gnu.linkonce.t._ZN7MINISAT6removeINS_3vecIPNS_6ClauseEEES3_EEvRT_RKT0_	000000a0 _ZN7MINISAT6removeINS_3vecIPNS_6ClauseEEES3_EEvRT_RKT0_
000002d0 g     F .text	00000051 _ZN7MINISAT6Solver18claRescaleActivityEv
00000000  w    F .gnu.linkonce.t._ZNK7MINISAT4HeapINS_11VarOrder_ltEE6inHeapEi	0000003c _ZNK7MINISAT4HeapINS_11VarOrder_ltEE6inHeapEi
00000000  w    F .gnu.linkonce.t._ZNK7MINISAT4HeapINS_6ElimLtEE6inHeapEi	0000003c _ZNK7MINISAT4HeapINS_6ElimLtEE6inHeapEi
00000000         *UND*	00000000 __powidf2
00000330 g     F .text	000000b4 _ZN7MINISAT6Solver16progressEstimateEv
000003f0 g     F .text	00000046 _ZN7MINISAT6Solver18varRescaleActivityEv
00000000  w    F .gnu.linkonce.t._ZN7MINISAT13selectionSortIPNS_6ClauseENS_11reduceDB_ltEEEvPT_iT0_	000000d0 _ZN7MINISAT13selectionSortIPNS_6ClauseENS_11reduceDB_ltEEEvPT_iT0_
00000000         *UND*	00000000 _ZNSt8ios_base4InitC1Ev
00000000         *UND*	00000000 __dso_handle
00000000         *UND*	00000000 __cxa_atexit
00000000  w    F .gnu.linkonce.t._ZN7MINISAT3vecINS_3LitEE6shrinkEi	0000003f _ZN7MINISAT3vecINS_3LitEE6shrinkEi
00000000  w    F .gnu.linkonce.t._ZN7MINISAT13selectionSortINS_3LitENS_16LessThan_defaultIS1_EEEEvPT_iT0_	0000008a _ZN7MINISAT13selectionSortINS_3LitENS_16LessThan_defaultIS1_EEEEvPT_iT0_
00000000  w    F .gnu.linkonce.t._ZN7MINISAT4sortIPNS_6ClauseENS_11reduceDB_ltEEEvPT_iT0_Rd	0000016e _ZN7MINISAT4sortIPNS_6ClauseENS_11reduceDB_ltEEEvPT_iT0_Rd
00000000  w    F .gnu.linkonce.t._ZN7MINISAT4sortIPNS_6ClauseENS_11reduceDB_ltEEEvPT_iT0_	0000002f _ZN7MINISAT4sortIPNS_6ClauseENS_11reduceDB_ltEEEvPT_iT0_
00000000  w    F .gnu.linkonce.t._ZN7MINISAT4sortIPNS_6ClauseENS_11reduceDB_ltEEEvRNS_3vecIT_EET0_	0000001c _ZN7MINISAT4sortIPNS_6ClauseENS_11reduceDB_ltEEEvRNS_3vecIT_EET0_
00000000  w    F .gnu.linkonce.t._ZN7MINISAT4sortINS_3LitENS_16LessThan_defaultIS1_EEEEvPT_iT0_Rd	00000127 _ZN7MINISAT4sortINS_3LitENS_16LessThan_defaultIS1_EEEEvPT_iT0_Rd
00000000  w    F .gnu.linkonce.t._ZN7MINISAT4sortINS_3LitENS_16LessThan_defaultIS1_EEEEvPT_iT0_	0000002f _ZN7MINISAT4sortINS_3LitENS_16LessThan_defaultIS1_EEEEvPT_iT0_
00000000  w    F .gnu.linkonce.t._ZN7MINISAT10sortUniqueINS_3LitENS_16LessThan_defaultIS1_EEEEvPT_RiT0_	0000007b _ZN7MINISAT10sortUniqueINS_3LitENS_16LessThan_defaultIS1_EEEEvPT_RiT0_
00000000  w    F .gnu.linkonce.t._ZN7MINISAT10sortUniqueINS_3LitENS_16LessThan_defaultIS1_EEEEvRNS_3vecIT_EET0_	00000056 _ZN7MINISAT10sortUniqueINS_3LitENS_16LessThan_defaultIS1_EEEEvRNS_3vecIT_EET0_
00000000  w    F .gnu.linkonce.t._ZN7MINISAT10sortUniqueINS_3LitEEEvRNS_3vecIT_EE	00000016 _ZN7MINISAT10sortUniqueINS_3LitEEEvRNS_3vecIT_EE
000004c0 g     F .text	00000059 _ZNK7MINISAT6Solver9satisfiedERNS_6ClauseE
00000000  w    F .gnu.linkonce.t._ZN7MINISAT6removeINS_6ClauseENS_3LitEEEvRT_RKT0_	000000be _ZN7MINISAT6removeINS_6ClauseENS_3LitEEEvRT_RKT0_
00000000  w    F .gnu.linkonce.t._ZN7MINISAT3vecIcE4growEi	00000074 _ZN7MINISAT3vecIcE4growEi
00000000  w    F .gnu.linkonce.t._ZN7MINISAT3vecINS0_IPNS_6ClauseEEEE4growEi	00000077 _ZN7MINISAT3vecINS0_IPNS_6ClauseEEEE4growEi
00000000  w    F .gnu.linkonce.t._ZN7MINISAT3vecINS_8TrailPosEE4growEi	00000078 _ZN7MINISAT3vecINS_8TrailPosEE4growEi
00000000  w    F .gnu.linkonce.t._ZN7MINISAT3vecIdE4growEi	00000078 _ZN7MINISAT3vecIdE4growEi
00000000  w    F .gnu.linkonce.t._ZN7MINISAT3vecIiE4growEi	00000078 _ZN7MINISAT3vecIiE4growEi
00000000  w    F .gnu.linkonce.t._ZN7MINISAT3vecIiE6growToEiRKi	00000077 _ZN7MINISAT3vecIiE6growToEiRKi
00000000  w    F .gnu.linkonce.t._ZN7MINISAT4HeapINS_11VarOrder_ltEE9setBoundsEi	00000041 _ZN7MINISAT4HeapINS_11VarOrder_ltEE9setBoundsEi
00000000  w    F .gnu.linkonce.t._ZN7MINISAT4HeapINS_6ElimLtEE9setBoundsEi	00000041 _ZN7MINISAT4HeapINS_6ElimLtEE9setBoundsEi
00000000  w    F .gnu.linkonce.t._ZN7MINISAT3vecIPNS_6ClauseEE4growEi	00000078 _ZN7MINISAT3vecIPNS_6ClauseEE4growEi
00000000  w    F .gnu.linkonce.t._ZN7MINISAT3vecINS_3LitEE4growEi	00000078 _ZN7MINISAT3vecINS_3LitEE4growEi
00000000  w    F .gnu.linkonce.t._ZN7MINISAT3vecINS_3LitEE6growToEi	0000005d _ZN7MINISAT3vecINS_3LitEE6growToEi
00000520 g     F .text	000000ee _ZN7MINISAT6Solver7enqueueENS_3LitEPNS_6ClauseE
00000000  w    F .gnu.linkonce.t._ZN7MINISAT3vecINS_5lboolEE4growEi	00000078 _ZN7MINISAT3vecINS_5lboolEE4growEi
00000000  w    F .gnu.linkonce.t._ZN7MINISAT3vecINS_5lboolEE6growToEi	0000005d _ZN7MINISAT3vecINS_5lboolEE6growToEi
00000000  w    F .gnu.linkonce.t._ZN7MINISAT4HeapINS_11VarOrder_ltEE8increaseEi	00000164 _ZN7MINISAT4HeapINS_11VarOrder_ltEE8increaseEi
00000610 g     F .text	00000327 _ZN7MINISAT6Solver9propagateEv
00000000         *UND*	00000000 _ZN7MINISAT6Solver24backwardSubsumptionCheckEv
00000000  w    F .gnu.linkonce.t._ZN7MINISAT6Solver8cleanOccEi	0000009e _ZN7MINISAT6Solver8cleanOccEi
00000000  w    F .gnu.linkonce.t._ZN7MINISAT4HeapINS_11VarOrder_ltEE12heapPropertyEi	00000340 _ZN7MINISAT4HeapINS_11VarOrder_ltEE12heapPropertyEi
00000000  w    F .gnu.linkonce.t._ZN7MINISAT4HeapINS_11VarOrder_ltEE6filterINS_9VarFilterEEEvRKT_	000002e0 _ZN7MINISAT4HeapINS_11VarOrder_ltEE6filterINS_9VarFilterEEEvRKT_
00000940 g     F .text	00000781 _ZN7MINISAT6Solver12removeClauseERNS_6ClauseEb
000010d0 g     F .text	00000719 _ZN7MINISAT6Solver10simplifyDBEb
00000000         *UND*	00000000 _ZN7MINISAT6Solver9eliminateEv
000017f0 g     F .text	00000195 _ZN7MINISAT6Solver8reduceDBEv
00001990 g     F .text	000002f1 _ZN7MINISAT6Solver11cancelUntilEi
00000000  w    F .gnu.linkonce.t._ZN7MINISAT4HeapINS_6ElimLtEE6insertEi	000001a4 _ZN7MINISAT4HeapINS_6ElimLtEE6insertEi
00001c90 g     F .text	00000066 _ZN7MINISAT6Solver6assumeENS_3LitE
00000000  w    F .gnu.linkonce.t._ZN7MINISAT4HeapINS_11VarOrder_ltEE6insertEi	000001a3 _ZN7MINISAT4HeapINS_11VarOrder_ltEE6insertEi
00001d00 g     F .text	000002a5 _ZN7MINISAT6Solver17analyze_removableENS_3LitEj
00001fb0 g     F .text	00000816 _ZN7MINISAT6Solver7analyzeEPNS_6ClauseERNS_3vecINS_3LitEEERi
000027d0 g     F .text	000001fc _ZN7MINISAT6Solver12analyzeFinalENS_3LitERNS_3vecIS1_EE
00000000         *UND*	00000000 _Unwind_Resume
000029d0 g     F .text	00000be8 _ZN7MINISAT6Solver9newClauseERKNS_3vecINS_3LitEEEbb
000035c0 g     F .text	000005b4 _ZN7MINISAT6Solver6searchEii
00000000         *UND*	00000000 _ZN4BEEV18print_sat_varorderE
00000000         *UND*	00000000 _ZN4BEEV35Convert_MINISATVar_To_ASTNode_PrintEiii
00000000         *UND*	00000000 stderr
00000000         *UND*	00000000 fwrite
00003b80 g     F .text	000003e2 _ZN7MINISAT6Solver5solveERKNS_3vecINS_3LitEEE
00000000         *UND*	00000000 puts
00000000         *UND*	00000000 stdout
00000000         *UND*	00000000 fflush
00000000         *UND*	00000000 printf
00000000         *UND*	00000000 _ZN7MINISAT6Solver11extendModelEv
00003f70 g     F .text	00000a45 _ZN7MINISAT6Solver10strengthenERNS_6ClauseENS_3LitE
000049c0 g     F .text	000005d0 _ZN7MINISAT6Solver6newVarEbb
00000000         *UND*	00000000 __gxx_personality_v0



bvsolver.o:     file format elf32-i386

SYMBOL TABLE:
00000000 l    df *ABS*	00000000 bvsolver.cpp
00000000 l    d  .text	00000000 .text
00000000 l    d  .data	00000000 .data
00000000 l    d  .bss	00000000 .bss
00000000 l    d  .ctors	00000000 .ctors
00000080 l     F .text	00000010 _GLOBAL__I__ZN4BEEV8BVSolver21CheckAlreadySolvedMapERKNS_7ASTNodeERS1_
00000000 l     O .bss	00000004 _ZN7MINISAT9lit_ErrorE
00000004 l     O .bss	00000004 _ZN7MINISAT9lit_UndefE
00000008 l     O .bss	00000004 _ZN7MINISAT7l_UndefE
0000000c l     O .bss	00000004 _ZN7MINISAT7l_FalseE
00000010 l     O .bss	00000004 _ZN7MINISAT6l_TrueE
00000014 l     O .bss	00000001 _ZSt8__ioinit
00000000 l    d  .rodata	00000000 .rodata
00000000 l     O .rodata	00000070 _ZN9__gnu_cxx16__stl_prime_listE
00000000 l    d  .gnu.linkonce.t._ZSt8_DestroyIPPN9__gnu_cxx15_Hashtable_nodeISt4pairIKN4BEEV7ASTNodeES4_EEESaIS8_EEvT_SB_T0_	00000000 .gnu.linkonce.t._ZSt8_DestroyIPPN9__gnu_cxx15_Hashtable_nodeISt4pairIKN4BEEV7ASTNodeES4_EEESaIS8_EEvT_SB_T0_
00000000 l    d  .gnu.linkonce.t._ZSt8_DestroyIPPN9__gnu_cxx15_Hashtable_nodeIN4BEEV7ASTNodeEEESaIS5_EEvT_S8_T0_	00000000 .gnu.linkonce.t._ZSt8_DestroyIPPN9__gnu_cxx15_Hashtable_nodeIN4BEEV7ASTNodeEEESaIS5_EEvT_S8_T0_
00000000 l    d  .gnu.linkonce.t._ZSt6fill_nIPPN9__gnu_cxx15_Hashtable_nodeISt4pairIKN4BEEV7ASTNodeES4_EEEjS8_ET_SA_T0_RKT1_	00000000 .gnu.linkonce.t._ZSt6fill_nIPPN9__gnu_cxx15_Hashtable_nodeISt4pairIKN4BEEV7ASTNodeES4_EEEjS8_ET_SA_T0_RKT1_
00000000 l    d  .gnu.linkonce.t._ZSt24__uninitialized_fill_n_aIPPN9__gnu_cxx15_Hashtable_nodeISt4pairIKN4BEEV7ASTNodeES4_EEEjS8_S8_EvT_T0_RKT1_SaIT2_E	00000000 .gnu.linkonce.t._ZSt24__uninitialized_fill_n_aIPPN9__gnu_cxx15_Hashtable_nodeISt4pairIKN4BEEV7ASTNodeES4_EEEjS8_S8_EvT_T0_RKT1_SaIT2_E
00000000 l    d  .gnu.linkonce.t._ZSt6fill_nIPPN9__gnu_cxx15_Hashtable_nodeIN4BEEV7ASTNodeEEEjS5_ET_S7_T0_RKT1_	00000000 .gnu.linkonce.t._ZSt6fill_nIPPN9__gnu_cxx15_Hashtable_nodeIN4BEEV7ASTNodeEEEjS5_ET_S7_T0_RKT1_
00000000 l    d  .gnu.linkonce.t._ZSt24__uninitialized_fill_n_aIPPN9__gnu_cxx15_Hashtable_nodeIN4BEEV7ASTNodeEEEjS5_S5_EvT_T0_RKT1_SaIT2_E	00000000 .gnu.linkonce.t._ZSt24__uninitialized_fill_n_aIPPN9__gnu_cxx15_Hashtable_nodeIN4BEEV7ASTNodeEEEjS5_S5_EvT_T0_RKT1_SaIT2_E
00000000 l     F .text	00000010 __tcf_0
00000000 l    d  .gnu.linkonce.t._ZSt4fillIN9__gnu_cxx17__normal_iteratorIPPNS0_15_Hashtable_nodeIN4BEEV7ASTNodeEEESt6vectorIS6_SaIS6_EEEES6_EvT_SC_RKT0_	00000000 .gnu.linkonce.t._ZSt4fillIN9__gnu_cxx17__normal_iteratorIPPNS0_15_Hashtable_nodeIN4BEEV7ASTNodeEEESt6vectorIS6_SaIS6_EEEES6_EvT_SC_RKT0_
00000000 l    d  .gnu.linkonce.t._ZSt6fill_nIN9__gnu_cxx17__normal_iteratorIPPNS0_15_Hashtable_nodeIN4BEEV7ASTNodeEEESt6vectorIS6_SaIS6_EEEEjS6_ET_SC_T0_RKT1_	00000000 .gnu.linkonce.t._ZSt6fill_nIN9__gnu_cxx17__normal_iteratorIPPNS0_15_Hashtable_nodeIN4BEEV7ASTNodeEEESt6vectorIS6_SaIS6_EEEEjS6_ET_SC_T0_RKT1_
00000000 l    d  .gnu.linkonce.t._ZSt24__uninitialized_fill_n_aIN9__gnu_cxx17__normal_iteratorIPPNS0_15_Hashtable_nodeIN4BEEV7ASTNodeEEESt6vectorIS6_SaIS6_EEEEjS6_S6_EvT_T0_RKT1_SaIT2_E	00000000 .gnu.linkonce.t._ZSt24__uninitialized_fill_n_aIN9__gnu_cxx17__normal_iteratorIPPNS0_15_Hashtable_nodeIN4BEEV7ASTNodeEEESt6vectorIS6_SaIS6_EEEEjS6_S6_EvT_T0_RKT1_SaIT2_E
00000000 l    d  .gnu.linkonce.t._ZSt8_DestroyIN9__gnu_cxx17__normal_iteratorIPPNS0_15_Hashtable_nodeIN4BEEV7ASTNodeEEESt6vectorIS6_SaIS6_EEEES9_EvT_SC_T0_	00000000 .gnu.linkonce.t._ZSt8_DestroyIN9__gnu_cxx17__normal_iteratorIPPNS0_15_Hashtable_nodeIN4BEEV7ASTNodeEEESt6vectorIS6_SaIS6_EEEES9_EvT_SC_T0_
00000000 l    d  .gnu.linkonce.t._ZSt11lower_boundIPKmmET_S2_S2_RKT0_	00000000 .gnu.linkonce.t._ZSt11lower_boundIPKmmET_S2_S2_RKT0_
00000010 l     F .text	00000070 _Z41__static_initialization_and_destruction_0ii
00000000 l    d  .gnu.linkonce.t._ZNK4BEEV7ASTNodeixEj	00000000 .gnu.linkonce.t._ZNK4BEEV7ASTNodeixEj
00000000 l    d  .rodata.str1.1	00000000 .rodata.str1.1
00000000 l    d  .gnu.linkonce.t._ZNSt6vectorIPN9__gnu_cxx15_Hashtable_nodeIN4BEEV7ASTNodeEEESaIS5_EE14_M_fill_insertENS0_17__normal_iteratorIPS5_S7_EEjRKS5_	00000000 .gnu.linkonce.t._ZNSt6vectorIPN9__gnu_cxx15_Hashtable_nodeIN4BEEV7ASTNodeEEESaIS5_EE14_M_fill_insertENS0_17__normal_iteratorIPS5_S7_EEjRKS5_
00000000 l    d  .gnu.linkonce.t._ZNSt6vectorIPN9__gnu_cxx15_Hashtable_nodeIN4BEEV7ASTNodeEEESaIS5_EE7reserveEj	00000000 .gnu.linkonce.t._ZNSt6vectorIPN9__gnu_cxx15_Hashtable_nodeIN4BEEV7ASTNodeEEESaIS5_EE7reserveEj
00000000 l    d  .gnu.linkonce.t._ZStplIcSt11char_traitsIcESaIcEESbIT_T0_T1_EPKS3_RKS6_	00000000 .gnu.linkonce.t._ZStplIcSt11char_traitsIcESaIcEESbIT_T0_T1_EPKS3_RKS6_
00000000 l    d  .gcc_except_table	00000000 .gcc_except_table
00000000 l    d  .gnu.linkonce.t._ZN9__gnu_cxx9hashtableIN4BEEV7ASTNodeES2_NS2_13ASTNodeHasherESt9_IdentityIS2_ENS2_12ASTNodeEqualESaIS2_EE21insert_equal_noresizeERKS2_	00000000 .gnu.linkonce.t._ZN9__gnu_cxx9hashtableIN4BEEV7ASTNodeES2_NS2_13ASTNodeHasherESt9_IdentityIS2_ENS2_12ASTNodeEqualESaIS2_EE21insert_equal_noresizeERKS2_
00000000 l    d  .gnu.linkonce.t._ZN9__gnu_cxx9hashtableIN4BEEV7ASTNodeES2_NS2_13ASTNodeHasherESt9_IdentityIS2_ENS2_12ASTNodeEqualESaIS2_EE22insert_unique_noresizeERKS2_	00000000 .gnu.linkonce.t._ZN9__gnu_cxx9hashtableIN4BEEV7ASTNodeES2_NS2_13ASTNodeHasherESt9_IdentityIS2_ENS2_12ASTNodeEqualESaIS2_EE22insert_unique_noresizeERKS2_
00000000 l    d  .gnu.linkonce.t._ZN9__gnu_cxx9hashtableISt4pairIKN4BEEV7ASTNodeES3_ES3_NS3_13ASTNodeHasherESt10_Select1stIS5_ENS3_12ASTNodeEqualESaIS3_EE5clearEv	00000000 .gnu.linkonce.t._ZN9__gnu_cxx9hashtableISt4pairIKN4BEEV7ASTNodeES3_ES3_NS3_13ASTNodeHasherESt10_Select1stIS5_ENS3_12ASTNodeEqualESaIS3_EE5clearEv
00000000 l    d  .gnu.linkonce.t._ZN9__gnu_cxx9hashtableIN4BEEV7ASTNodeES2_NS2_13ASTNodeHasherESt9_IdentityIS2_ENS2_12ASTNodeEqualESaIS2_EE5clearEv	00000000 .gnu.linkonce.t._ZN9__gnu_cxx9hashtableIN4BEEV7ASTNodeES2_NS2_13ASTNodeHasherESt9_IdentityIS2_ENS2_12ASTNodeEqualESaIS2_EE5clearEv
00000000 l    d  .gnu.linkonce.t._ZN9__gnu_cxx9hashtableISt4pairIKN4BEEV7ASTNodeES3_ES3_NS3_13ASTNodeHasherESt10_Select1stIS5_ENS3_12ASTNodeEqualESaIS3_EE6resizeEj	00000000 .gnu.linkonce.t._ZN9__gnu_cxx9hashtableISt4pairIKN4BEEV7ASTNodeES3_ES3_NS3_13ASTNodeHasherESt10_Select1stIS5_ENS3_12ASTNodeEqualESaIS3_EE6resizeEj
00000000 l    d  .gnu.linkonce.t._ZNSt6vectorIN4BEEV7ASTNodeESaIS1_EEC1ERKS3_	00000000 .gnu.linkonce.t._ZNSt6vectorIN4BEEV7ASTNodeESaIS1_EEC1ERKS3_
00000000 l    d  .gnu.linkonce.t._ZSt8_DestroyIN9__gnu_cxx17__normal_iteratorIPN4BEEV7ASTNodeESt6vectorIS3_SaIS3_EEEES6_EvT_S9_T0_	00000000 .gnu.linkonce.t._ZSt8_DestroyIN9__gnu_cxx17__normal_iteratorIPN4BEEV7ASTNodeESt6vectorIS3_SaIS3_EEEES6_EvT_S9_T0_
00000000 l    d  .gnu.linkonce.t._ZNSt6vectorIN4BEEV7ASTNodeESaIS1_EE5eraseEN9__gnu_cxx17__normal_iteratorIPS1_S3_EES7_	00000000 .gnu.linkonce.t._ZNSt6vectorIN4BEEV7ASTNodeESaIS1_EE5eraseEN9__gnu_cxx17__normal_iteratorIPS1_S3_EES7_
00000000 l    d  .gnu.linkonce.t._ZN9__gnu_cxx9hashtableIN4BEEV7ASTNodeES2_NS2_13ASTNodeHasherESt9_IdentityIS2_ENS2_12ASTNodeEqualESaIS2_EE6resizeEj	00000000 .gnu.linkonce.t._ZN9__gnu_cxx9hashtableIN4BEEV7ASTNodeES2_NS2_13ASTNodeHasherESt9_IdentityIS2_ENS2_12ASTNodeEqualESaIS2_EE6resizeEj
00000000 l    d  .gnu.linkonce.t._ZN9__gnu_cxx9hashtableISt4pairIKN4BEEV7ASTNodeES3_ES3_NS3_13ASTNodeHasherESt10_Select1stIS5_ENS3_12ASTNodeEqualESaIS3_EE14find_or_insertERKS5_	00000000 .gnu.linkonce.t._ZN9__gnu_cxx9hashtableISt4pairIKN4BEEV7ASTNodeES3_ES3_NS3_13ASTNodeHasherESt10_Select1stIS5_ENS3_12ASTNodeEqualESaIS3_EE14find_or_insertERKS5_
00000000 l    d  .gnu.linkonce.t._ZNSt6vectorIN4BEEV7ASTNodeESaIS1_EE13_M_insert_auxEN9__gnu_cxx17__normal_iteratorIPS1_S3_EERKS1_	00000000 .gnu.linkonce.t._ZNSt6vectorIN4BEEV7ASTNodeESaIS1_EE13_M_insert_auxEN9__gnu_cxx17__normal_iteratorIPS1_S3_EERKS1_
00000000 l    d  .gnu.linkonce.t._ZSt8_DestroyIPN4BEEV7ASTNodeESaIS1_EEvT_S4_T0_	00000000 .gnu.linkonce.t._ZSt8_DestroyIPN4BEEV7ASTNodeESaIS1_EEvT_S4_T0_
00000000 l    d  .gnu.linkonce.t._ZNSt6vectorIN4BEEV7ASTNodeESaIS1_EEaSERKS3_	00000000 .gnu.linkonce.t._ZNSt6vectorIN4BEEV7ASTNodeESaIS1_EEaSERKS3_
00000000 l    d  .gnu.linkonce.t._ZNSt6vectorIN4BEEV7ASTNodeESaIS1_EED1Ev	00000000 .gnu.linkonce.t._ZNSt6vectorIN4BEEV7ASTNodeESaIS1_EED1Ev
00000000 l    d  .rodata.str1.4	00000000 .rodata.str1.4
00000000 l    d  .eh_frame	00000000 .eh_frame
00000000 l    d  .note.GNU-stack	00000000 .note.GNU-stack
00000000 l    d  .comment	00000000 .comment
00000000 l    d  .group	00000000 .group
00000000 l    d  .group	00000000 .group
00000000 l    d  .group	00000000 .group
00000000 l    d  .group	00000000 .group
00000000 l    d  .group	00000000 .group
00000000 l    d  .group	00000000 .group
00000000 l    d  .group	00000000 .group
00000000 l    d  .group	00000000 .group
00000000 l    d  .group	00000000 .group
00000000 l    d  .group	00000000 .group
00000000 l    d  .group	00000000 .group
00000000 l    d  .group	00000000 .group
00000000 l    d  .group	00000000 .group
00000000 l    d  .group	00000000 .group
00000000 l    d  .group	00000000 .group
00000000 l    d  .group	00000000 .group
00000000 l    d  .group	00000000 .group
00000000 l    d  .group	00000000 .group
00000000 l    d  .group	00000000 .group
00000000 l    d  .group	00000000 .group
00000000 l    d  .group	00000000 .group
00000000 l    d  .group	00000000 .group
00000000 l    d  .group	00000000 .group
00000000 l    d  .group	00000000 .group
00000000 l    d  .group	00000000 .group
00000000 l    d  .group	00000000 .group
00000000 l    d  .group	00000000 .group
00000000 l    d  .group	00000000 .group
00000000 l    d  .group	00000000 .group
00000000  w    F .gnu.linkonce.t._ZSt8_DestroyIPPN9__gnu_cxx15_Hashtable_nodeISt4pairIKN4BEEV7ASTNodeES4_EEESaIS8_EEvT_SB_T0_	00000019 _ZSt8_DestroyIPPN9__gnu_cxx15_Hashtable_nodeISt4pairIKN4BEEV7ASTNodeES4_EEESaIS8_EEvT_SB_T0_
00000000  w    F .gnu.linkonce.t._ZSt8_DestroyIPPN9__gnu_cxx15_Hashtable_nodeIN4BEEV7ASTNodeEEESaIS5_EEvT_S8_T0_	00000019 _ZSt8_DestroyIPPN9__gnu_cxx15_Hashtable_nodeIN4BEEV7ASTNodeEEESaIS5_EEvT_S8_T0_
00000000  w    F .gnu.linkonce.t._ZSt6fill_nIPPN9__gnu_cxx15_Hashtable_nodeISt4pairIKN4BEEV7ASTNodeES4_EEEjS8_ET_SA_T0_RKT1_	00000024 _ZSt6fill_nIPPN9__gnu_cxx15_Hashtable_nodeISt4pairIKN4BEEV7ASTNodeES4_EEEjS8_ET_SA_T0_RKT1_
00000000  w    F .gnu.linkonce.t._ZSt24__uninitialized_fill_n_aIPPN9__gnu_cxx15_Hashtable_nodeISt4pairIKN4BEEV7ASTNodeES4_EEEjS8_S8_EvT_T0_RKT1_SaIT2_E	00000009 _ZSt24__uninitialized_fill_n_aIPPN9__gnu_cxx15_Hashtable_nodeISt4pairIKN4BEEV7ASTNodeES4_EEEjS8_S8_EvT_T0_RKT1_SaIT2_E
00000000  w    F .gnu.linkonce.t._ZSt6fill_nIPPN9__gnu_cxx15_Hashtable_nodeIN4BEEV7ASTNodeEEEjS5_ET_S7_T0_RKT1_	00000024 _ZSt6fill_nIPPN9__gnu_cxx15_Hashtable_nodeIN4BEEV7ASTNodeEEEjS5_ET_S7_T0_RKT1_
00000000  w    F .gnu.linkonce.t._ZSt24__uninitialized_fill_n_aIPPN9__gnu_cxx15_Hashtable_nodeIN4BEEV7ASTNodeEEEjS5_S5_EvT_T0_RKT1_SaIT2_E	00000009 _ZSt24__uninitialized_fill_n_aIPPN9__gnu_cxx15_Hashtable_nodeIN4BEEV7ASTNodeEEEjS5_S5_EvT_T0_RKT1_SaIT2_E
00000000         *UND*	00000000 _ZNSt8ios_base4InitD1Ev
00000000  w    F .gnu.linkonce.t._ZSt4fillIN9__gnu_cxx17__normal_iteratorIPPNS0_15_Hashtable_nodeIN4BEEV7ASTNodeEEESt6vectorIS6_SaIS6_EEEES6_EvT_SC_RKT0_	0000001d _ZSt4fillIN9__gnu_cxx17__normal_iteratorIPPNS0_15_Hashtable_nodeIN4BEEV7ASTNodeEEESt6vectorIS6_SaIS6_EEEES6_EvT_SC_RKT0_
00000000  w    F .gnu.linkonce.t._ZSt6fill_nIN9__gnu_cxx17__normal_iteratorIPPNS0_15_Hashtable_nodeIN4BEEV7ASTNodeEEESt6vectorIS6_SaIS6_EEEEjS6_ET_SC_T0_RKT1_	00000034 _ZSt6fill_nIN9__gnu_cxx17__normal_iteratorIPPNS0_15_Hashtable_nodeIN4BEEV7ASTNodeEEESt6vectorIS6_SaIS6_EEEEjS6_ET_SC_T0_RKT1_
00000000  w    F .gnu.linkonce.t._ZSt24__uninitialized_fill_n_aIN9__gnu_cxx17__normal_iteratorIPPNS0_15_Hashtable_nodeIN4BEEV7ASTNodeEEESt6vectorIS6_SaIS6_EEEEjS6_S6_EvT_T0_RKT1_SaIT2_E	0000001f _ZSt24__uninitialized_fill_n_aIN9__gnu_cxx17__normal_iteratorIPPNS0_15_Hashtable_nodeIN4BEEV7ASTNodeEEESt6vectorIS6_SaIS6_EEEEjS6_S6_EvT_T0_RKT1_SaIT2_E
00000000  w    F .gnu.linkonce.t._ZSt8_DestroyIN9__gnu_cxx17__normal_iteratorIPPNS0_15_Hashtable_nodeIN4BEEV7ASTNodeEEESt6vectorIS6_SaIS6_EEEES9_EvT_SC_T0_	00000019 _ZSt8_DestroyIN9__gnu_cxx17__normal_iteratorIPPNS0_15_Hashtable_nodeIN4BEEV7ASTNodeEEESt6vectorIS6_SaIS6_EEEES9_EvT_SC_T0_
00000000  w    F .gnu.linkonce.t._ZSt11lower_boundIPKmmET_S2_S2_RKT0_	00000043 _ZSt11lower_boundIPKmmET_S2_S2_RKT0_
00000000         *UND*	00000000 _ZNSt8ios_base4InitC1Ev
00000000         *UND*	00000000 __dso_handle
00000000         *UND*	00000000 __cxa_atexit
00000000  w    F .gnu.linkonce.t._ZNK4BEEV7ASTNodeixEj	0000002f _ZNK4BEEV7ASTNodeixEj
00000000         *UND*	00000000 _ZN4BEEV7ASTNodeC1ERKS0_
00000090 g     F .text	0000004a _ZN4BEEV7BeevMgr14CheckSolverMapERKNS_7ASTNodeE
000000e0 g     F .text	0000004a _ZN4BEEV8BVSolver14DoNotSolveThisERKNS_7ASTNodeE
00000000  w    F .gnu.linkonce.t._ZNSt6vectorIPN9__gnu_cxx15_Hashtable_nodeIN4BEEV7ASTNodeEEESaIS5_EE14_M_fill_insertENS0_17__normal_iteratorIPS5_S7_EEjRKS5_	00000206 _ZNSt6vectorIPN9__gnu_cxx15_Hashtable_nodeIN4BEEV7ASTNodeEEESaIS5_EE14_M_fill_insertENS0_17__normal_iteratorIPS5_S7_EEjRKS5_
00000000         *UND*	00000000 _Znwj
00000000         *UND*	00000000 memmove
00000000         *UND*	00000000 _ZdlPv
00000000         *UND*	00000000 _ZSt17__throw_bad_allocv
00000000         *UND*	00000000 _ZSt20__throw_length_errorPKc
00000000  w    F .gnu.linkonce.t._ZNSt6vectorIPN9__gnu_cxx15_Hashtable_nodeIN4BEEV7ASTNodeEEESaIS5_EE7reserveEj	000000bd _ZNSt6vectorIPN9__gnu_cxx15_Hashtable_nodeIN4BEEV7ASTNodeEEESaIS5_EE7reserveEj
00000000         *UND*	00000000 _Unwind_Resume
00000000  w    F .gnu.linkonce.t._ZStplIcSt11char_traitsIcESaIcEESbIT_T0_T1_EPKS3_RKS6_	0000009e _ZStplIcSt11char_traitsIcESaIcEESbIT_T0_T1_EPKS3_RKS6_
00000000         *UND*	00000000 strlen
00000000         *UND*	00000000 _ZNSs4_Rep20_S_empty_rep_storageE
00000000         *UND*	00000000 _ZNSs7reserveEj
00000000         *UND*	00000000 _ZNSs6appendEPKcj
00000000         *UND*	00000000 _ZNSs6appendERKSs
00000000         *UND*	00000000 _ZN9__gnu_cxx18__exchange_and_addEPVii
00000000         *UND*	00000000 _ZNSs4_Rep10_M_destroyERKSaIcE
00000130 g     F .text	00000086 _ZN4BEEV8BVSolver21CheckAlreadySolvedMapERKNS_7ASTNodeERS1_
000001c0 g     F .text	0000008a _ZN4BEEV7BeevMgr14CheckSolverMapERKNS_7ASTNodeERS1_
00000000  w    F .gnu.linkonce.t._ZN9__gnu_cxx9hashtableIN4BEEV7ASTNodeES2_NS2_13ASTNodeHasherESt9_IdentityIS2_ENS2_12ASTNodeEqualESaIS2_EE21insert_equal_noresizeERKS2_	00000131 _ZN9__gnu_cxx9hashtableIN4BEEV7ASTNodeES2_NS2_13ASTNodeHasherESt9_IdentityIS2_ENS2_12ASTNodeEqualESaIS2_EE21insert_equal_noresizeERKS2_
00000000         *UND*	00000000 __cxa_begin_catch
00000000         *UND*	00000000 __cxa_rethrow
00000000         *UND*	00000000 __cxa_end_catch
00000000  w    F .gnu.linkonce.t._ZN9__gnu_cxx9hashtableIN4BEEV7ASTNodeES2_NS2_13ASTNodeHasherESt9_IdentityIS2_ENS2_12ASTNodeEqualESaIS2_EE22insert_unique_noresizeERKS2_	000000e5 _ZN9__gnu_cxx9hashtableIN4BEEV7ASTNodeES2_NS2_13ASTNodeHasherESt9_IdentityIS2_ENS2_12ASTNodeEqualESaIS2_EE22insert_unique_noresizeERKS2_
00000000  w    F .gnu.linkonce.t._ZN9__gnu_cxx9hashtableISt4pairIKN4BEEV7ASTNodeES3_ES3_NS3_13ASTNodeHasherESt10_Select1stIS5_ENS3_12ASTNodeEqualESaIS3_EE5clearEv	0000011e _ZN9__gnu_cxx9hashtableISt4pairIKN4BEEV7ASTNodeES3_ES3_NS3_13ASTNodeHasherESt10_Select1stIS5_ENS3_12ASTNodeEqualESaIS3_EE5clearEv
00000000  w    F .gnu.linkonce.t._ZN9__gnu_cxx9hashtableIN4BEEV7ASTNodeES2_NS2_13ASTNodeHasherESt9_IdentityIS2_ENS2_12ASTNodeEqualESaIS2_EE5clearEv	000000c8 _ZN9__gnu_cxx9hashtableIN4BEEV7ASTNodeES2_NS2_13ASTNodeHasherESt9_IdentityIS2_ENS2_12ASTNodeEqualESaIS2_EE5clearEv
00000000  w    F .gnu.linkonce.t._ZN9__gnu_cxx9hashtableISt4pairIKN4BEEV7ASTNodeES3_ES3_NS3_13ASTNodeHasherESt10_Select1stIS5_ENS3_12ASTNodeEqualESaIS3_EE6resizeEj	00000187 _ZN9__gnu_cxx9hashtableISt4pairIKN4BEEV7ASTNodeES3_ES3_NS3_13ASTNodeHasherESt10_Select1stIS5_ENS3_12ASTNodeEqualESaIS3_EE6resizeEj
00000000  w    F .gnu.linkonce.t._ZNSt6vectorIN4BEEV7ASTNodeESaIS1_EEC1ERKS3_	0000011c _ZNSt6vectorIN4BEEV7ASTNodeESaIS1_EEC1ERKS3_
00000000  w    F .gnu.linkonce.t._ZSt8_DestroyIN9__gnu_cxx17__normal_iteratorIPN4BEEV7ASTNodeESt6vectorIS3_SaIS3_EEEES6_EvT_S9_T0_	00000047 _ZSt8_DestroyIN9__gnu_cxx17__normal_iteratorIPN4BEEV7ASTNodeESt6vectorIS3_SaIS3_EEEES6_EvT_S9_T0_
00000000  w    F .gnu.linkonce.t._ZNSt6vectorIN4BEEV7ASTNodeESaIS1_EE5eraseEN9__gnu_cxx17__normal_iteratorIPS1_S3_EES7_	000000cb _ZNSt6vectorIN4BEEV7ASTNodeESaIS1_EE5eraseEN9__gnu_cxx17__normal_iteratorIPS1_S3_EES7_
00000000  w    F .gnu.linkonce.t._ZN9__gnu_cxx9hashtableIN4BEEV7ASTNodeES2_NS2_13ASTNodeHasherESt9_IdentityIS2_ENS2_12ASTNodeEqualESaIS2_EE6resizeEj	00000187 _ZN9__gnu_cxx9hashtableIN4BEEV7ASTNodeES2_NS2_13ASTNodeHasherESt9_IdentityIS2_ENS2_12ASTNodeEqualESaIS2_EE6resizeEj
00000000  w    F .gnu.linkonce.t._ZN9__gnu_cxx9hashtableISt4pairIKN4BEEV7ASTNodeES3_ES3_NS3_13ASTNodeHasherESt10_Select1stIS5_ENS3_12ASTNodeEqualESaIS3_EE14find_or_insertERKS5_	00000115 _ZN9__gnu_cxx9hashtableISt4pairIKN4BEEV7ASTNodeES3_ES3_NS3_13ASTNodeHasherESt10_Select1stIS5_ENS3_12ASTNodeEqualESaIS3_EE14find_or_insertERKS5_
00000250 g     F .text	00000169 _ZN4BEEV8BVSolver22UpdateAlreadySolvedMapERKNS_7ASTNodeES3_
000003c0 g     F .text	000001f8 _ZN4BEEV8BVSolver6NewVarEj
00000000         *UND*	00000000 _ZNSsC1EPKcRKSaIcE
00000000         *UND*	00000000 sprintf
00000000         *UND*	00000000 _ZN4BEEV7BeevMgr12CreateSymbolEPKc
00000000  w    F .gnu.linkonce.t._ZNSt6vectorIN4BEEV7ASTNodeESaIS1_EE13_M_insert_auxEN9__gnu_cxx17__normal_iteratorIPS1_S3_EERKS1_	0000036e _ZNSt6vectorIN4BEEV7ASTNodeESaIS1_EE13_M_insert_auxEN9__gnu_cxx17__normal_iteratorIPS1_S3_EERKS1_
00000000  w    F .gnu.linkonce.t._ZSt8_DestroyIPN4BEEV7ASTNodeESaIS1_EEvT_S4_T0_	00000047 _ZSt8_DestroyIPN4BEEV7ASTNodeESaIS1_EEvT_S4_T0_
00000000  w    F .gnu.linkonce.t._ZNSt6vectorIN4BEEV7ASTNodeESaIS1_EEaSERKS3_	0000030c _ZNSt6vectorIN4BEEV7ASTNodeESaIS1_EEaSERKS3_
00000000  w    F .gnu.linkonce.t._ZNSt6vectorIN4BEEV7ASTNodeESaIS1_EED1Ev	00000054 _ZNSt6vectorIN4BEEV7ASTNodeESaIS1_EED1Ev
000005c0 g     F .text	00000505 _ZN4BEEV8BVSolver30SplitEven_into_Oddnum_PowerOf2ERKNS_7ASTNodeERj
00000000         *UND*	00000000 _ZN4BEEV10FatalErrorEPKcRKNS_7ASTNodeEi
00000000         *UND*	00000000 _ZN4BEEV7BeevMgr15CreateZeroConstEj
00000000         *UND*	00000000 _ZN4BEEV7BeevMgr14CreateTwoConstEj
00000000         *UND*	00000000 _ZN4BEEV16_kind_categoriesE
00000000         *UND*	00000000 _ZN4BEEV13_empty_ASTVecE
00000000         *UND*	00000000 _ZN4BEEV7BeevMgr10CreateNodeENS_4KindERKNS_7ASTNodeES4_RKSt6vectorIS2_SaIS2_EE
00000000         *UND*	00000000 _ZN4BEEV7BeevMgr16BVConstEvaluatorERKNS_7ASTNodeE
00000000         *UND*	00000000 _ZN4BEEV7BeevMgr12BVConstIsOddERKNS_7ASTNodeE
00000ad0 g     F .text	0000051f _ZN4BEEV8BVSolver18CheckForArrayReadsERKNS_7ASTNodeE
00000ff0 g     F .text	00000029 _ZN4BEEV8BVSolver27CheckForArrayReads_TopLevelERKNS_7ASTNodeE
00001020 g     F .text	000002a7 _ZN4BEEV7BeevMgr15UpdateSolverMapERKNS_7ASTNodeES3_
000012d0 g     F .text	00000477 _ZN4BEEV8BVSolver13VarsInTheTermERKNS_7ASTNodeERN9__gnu_cxx13hash_multisetIS1_NS1_13ASTNodeHasherENS1_12ASTNodeEqualESaIS1_EEE
00001750 g     F .text	00000033 _ZN4BEEV8BVSolver22VarsInTheTerm_TopLevelERKNS_7ASTNodeERN9__gnu_cxx13hash_multisetIS1_NS1_13ASTNodeHasherENS1_12ASTNodeEqualESaIS1_EEE
00001790 g     F .text	000010a1 _ZN4BEEV8BVSolver11ChooseMonomERKNS_7ASTNodeERS1_
00000000         *UND*	00000000 _ZN4BEEV7BeevMgr10CreateNodeENS_4KindERKSt6vectorINS_7ASTNodeESaIS3_EE
00000000         *UND*	00000000 _ZN4BEEV7BeevMgr13VarSeenInTermERKNS_7ASTNodeES3_
00002840 g     F .text	00001ed2 _ZN4BEEV8BVSolver11BVSolve_OddERKNS_7ASTNodeE
00000000         *UND*	00000000 _ZN4BEEV15wordlevel_solveE
00000000         *UND*	00000000 _ZN4BEEV7BeevMgr10CreateNodeENS_4KindERKNS_7ASTNodeERKSt6vectorIS2_SaIS2_EE
00000000         *UND*	00000000 _ZN4BEEV7BeevMgr21SimplifyTerm_TopLevelERKNS_7ASTNodeE
00000000         *UND*	00000000 _ZN4BEEV7BeevMgr12SimplifyTermERKNS_7ASTNodeE
00000000         *UND*	00000000 _ZN4BEEV7BeevMgr21MultiplicativeInverseERKNS_7ASTNodeE
00004720 g     F .text	000006c5 _ZN4BEEV8BVSolver12CheckEvenEqnERKNS_7ASTNodeERb
00004df0 g     F .text	0000214d _ZN4BEEV8BVSolver12BVSolve_EvenERKNS_7ASTNodeE
00000000         *UND*	00000000 _ZN4BEEV7BeevMgr18CreateSimplifiedEQERKNS_7ASTNodeES3_
00000000         *UND*	00000000 _ZN4BEEV7BeevMgr13CreateBVConstEjy
00000000         *UND*	00000000 _ZN4BEEV7BeevMgr10CreateNodeENS_4KindERKNS_7ASTNodeES4_S4_RKSt6vectorIS2_SaIS2_EE
00006f40 g     F .text	000009a7 _ZN4BEEV8BVSolver15TopLevelBVSolveERKNS_7ASTNodeE
00000000         *UND*	00000000 _ZN4BEEV7BeevMgr12ASTNodeStatsEPKcRKNS_7ASTNodeE
00000000         *UND*	00000000 _ZN4BEEV7BeevMgr15SimplifyFormulaERKNS_7ASTNodeEb
00000000         *UND*	00000000 __gxx_personality_v0



simplifier.o:     file format elf32-i386

SYMBOL TABLE:
00000000 l    df *ABS*	00000000 simplifier.cpp
00000000 l    d  .text	00000000 .text
00000000 l    d  .data	00000000 .data
00000000 l    d  .bss	00000000 .bss
00000000 l    d  .ctors	00000000 .ctors
00000080 l     F .text	00000010 _GLOBAL__I__ZN4BEEV7BeevMgr16CheckSimplifyMapERKNS_7ASTNodeERS1_b
00000000 l     O .bss	00000004 _ZN7MINISAT9lit_ErrorE
00000004 l     O .bss	00000004 _ZN7MINISAT9lit_UndefE
00000008 l     O .bss	00000004 _ZN7MINISAT7l_UndefE
0000000c l     O .bss	00000004 _ZN7MINISAT7l_FalseE
00000010 l     O .bss	00000004 _ZN7MINISAT6l_TrueE
00000014 l     O .bss	00000001 _ZSt8__ioinit
00000000 l    d  .rodata	00000000 .rodata
00000000 l     O .rodata	00000070 _ZN9__gnu_cxx16__stl_prime_listE
00000000 l    d  .gnu.linkonce.t._ZN4BEEV7ASTNodeD1Ev	00000000 .gnu.linkonce.t._ZN4BEEV7ASTNodeD1Ev
00000000 l    d  .gnu.linkonce.t._ZSt8_DestroyIPPN9__gnu_cxx15_Hashtable_nodeISt4pairIKN4BEEV7ASTNodeES4_EEESaIS8_EEvT_SB_T0_	00000000 .gnu.linkonce.t._ZSt8_DestroyIPPN9__gnu_cxx15_Hashtable_nodeISt4pairIKN4BEEV7ASTNodeES4_EEESaIS8_EEvT_SB_T0_
00000000 l    d  .gnu.linkonce.t._ZSt8_DestroyIPPN9__gnu_cxx15_Hashtable_nodeIN4BEEV7ASTNodeEEESaIS5_EEvT_S8_T0_	00000000 .gnu.linkonce.t._ZSt8_DestroyIPPN9__gnu_cxx15_Hashtable_nodeIN4BEEV7ASTNodeEEESaIS5_EEvT_S8_T0_
00000000 l    d  .gnu.linkonce.t._ZSt8_DestroyIPPN9__gnu_cxx15_Hashtable_nodeISt4pairIKN4BEEV7ASTNodeESt6vectorIS4_SaIS4_EEEEESaISB_EEvT_SE_T0_	00000000 .gnu.linkonce.t._ZSt8_DestroyIPPN9__gnu_cxx15_Hashtable_nodeISt4pairIKN4BEEV7ASTNodeESt6vectorIS4_SaIS4_EEEEESaISB_EEvT_SE_T0_
00000000 l    d  .gnu.linkonce.t._ZSt6fill_nIPPN9__gnu_cxx15_Hashtable_nodeISt4pairIKN4BEEV7ASTNodeES4_EEEjS8_ET_SA_T0_RKT1_	00000000 .gnu.linkonce.t._ZSt6fill_nIPPN9__gnu_cxx15_Hashtable_nodeISt4pairIKN4BEEV7ASTNodeES4_EEEjS8_ET_SA_T0_RKT1_
00000000 l    d  .gnu.linkonce.t._ZSt24__uninitialized_fill_n_aIPPN9__gnu_cxx15_Hashtable_nodeISt4pairIKN4BEEV7ASTNodeES4_EEEjS8_S8_EvT_T0_RKT1_SaIT2_E	00000000 .gnu.linkonce.t._ZSt24__uninitialized_fill_n_aIPPN9__gnu_cxx15_Hashtable_nodeISt4pairIKN4BEEV7ASTNodeES4_EEEjS8_S8_EvT_T0_RKT1_SaIT2_E
00000000 l    d  .gnu.linkonce.t._ZSt6fill_nIPPN9__gnu_cxx15_Hashtable_nodeIN4BEEV7ASTNodeEEEjS5_ET_S7_T0_RKT1_	00000000 .gnu.linkonce.t._ZSt6fill_nIPPN9__gnu_cxx15_Hashtable_nodeIN4BEEV7ASTNodeEEEjS5_ET_S7_T0_RKT1_
00000000 l    d  .gnu.linkonce.t._ZSt24__uninitialized_fill_n_aIPPN9__gnu_cxx15_Hashtable_nodeIN4BEEV7ASTNodeEEEjS5_S5_EvT_T0_RKT1_SaIT2_E	00000000 .gnu.linkonce.t._ZSt24__uninitialized_fill_n_aIPPN9__gnu_cxx15_Hashtable_nodeIN4BEEV7ASTNodeEEEjS5_S5_EvT_T0_RKT1_SaIT2_E
00000000 l    d  .gnu.linkonce.t._ZSt6fill_nIPPN9__gnu_cxx15_Hashtable_nodeISt4pairIKN4BEEV7ASTNodeESt6vectorIS4_SaIS4_EEEEEjSB_ET_SD_T0_RKT1_	00000000 .gnu.linkonce.t._ZSt6fill_nIPPN9__gnu_cxx15_Hashtable_nodeISt4pairIKN4BEEV7ASTNodeESt6vectorIS4_SaIS4_EEEEEjSB_ET_SD_T0_RKT1_
00000000 l    d  .gnu.linkonce.t._ZSt24__uninitialized_fill_n_aIPPN9__gnu_cxx15_Hashtable_nodeISt4pairIKN4BEEV7ASTNodeESt6vectorIS4_SaIS4_EEEEEjSB_SB_EvT_T0_RKT1_SaIT2_E	00000000 .gnu.linkonce.t._ZSt24__uninitialized_fill_n_aIPPN9__gnu_cxx15_Hashtable_nodeISt4pairIKN4BEEV7ASTNodeESt6vectorIS4_SaIS4_EEEEEjSB_SB_EvT_T0_RKT1_SaIT2_E
00000000 l     F .text	00000010 __tcf_0
00000000 l    d  .gnu.linkonce.t._ZSt4fillIN9__gnu_cxx17__normal_iteratorIPPNS0_15_Hashtable_nodeIN4BEEV7ASTNodeEEESt6vectorIS6_SaIS6_EEEES6_EvT_SC_RKT0_	00000000 .gnu.linkonce.t._ZSt4fillIN9__gnu_cxx17__normal_iteratorIPPNS0_15_Hashtable_nodeIN4BEEV7ASTNodeEEESt6vectorIS6_SaIS6_EEEES6_EvT_SC_RKT0_
00000000 l    d  .gnu.linkonce.t._ZSt4fillIN9__gnu_cxx17__normal_iteratorIPPNS0_15_Hashtable_nodeISt4pairIKN4BEEV7ASTNodeESt6vectorIS5_SaIS5_EEEEES7_ISC_SaISC_EEEESC_EvT_SH_RKT0_	00000000 .gnu.linkonce.t._ZSt4fillIN9__gnu_cxx17__normal_iteratorIPPNS0_15_Hashtable_nodeISt4pairIKN4BEEV7ASTNodeESt6vectorIS5_SaIS5_EEEEES7_ISC_SaISC_EEEESC_EvT_SH_RKT0_
00000000 l    d  .gnu.linkonce.t._ZNK4BEEV7ASTNodeixEj	00000000 .gnu.linkonce.t._ZNK4BEEV7ASTNodeixEj
00000000 l    d  .gnu.linkonce.t._ZSt6fill_nIN9__gnu_cxx17__normal_iteratorIPPNS0_15_Hashtable_nodeIN4BEEV7ASTNodeEEESt6vectorIS6_SaIS6_EEEEjS6_ET_SC_T0_RKT1_	00000000 .gnu.linkonce.t._ZSt6fill_nIN9__gnu_cxx17__normal_iteratorIPPNS0_15_Hashtable_nodeIN4BEEV7ASTNodeEEESt6vectorIS6_SaIS6_EEEEjS6_ET_SC_T0_RKT1_
00000000 l    d  .gnu.linkonce.t._ZSt24__uninitialized_fill_n_aIN9__gnu_cxx17__normal_iteratorIPPNS0_15_Hashtable_nodeIN4BEEV7ASTNodeEEESt6vectorIS6_SaIS6_EEEEjS6_S6_EvT_T0_RKT1_SaIT2_E	00000000 .gnu.linkonce.t._ZSt24__uninitialized_fill_n_aIN9__gnu_cxx17__normal_iteratorIPPNS0_15_Hashtable_nodeIN4BEEV7ASTNodeEEESt6vectorIS6_SaIS6_EEEEjS6_S6_EvT_T0_RKT1_SaIT2_E
00000000 l    d  .gnu.linkonce.t._ZSt6fill_nIN9__gnu_cxx17__normal_iteratorIPPNS0_15_Hashtable_nodeISt4pairIKN4BEEV7ASTNodeESt6vectorIS5_SaIS5_EEEEES7_ISC_SaISC_EEEEjSC_ET_SH_T0_RKT1_	00000000 .gnu.linkonce.t._ZSt6fill_nIN9__gnu_cxx17__normal_iteratorIPPNS0_15_Hashtable_nodeISt4pairIKN4BEEV7ASTNodeESt6vectorIS5_SaIS5_EEEEES7_ISC_SaISC_EEEEjSC_ET_SH_T0_RKT1_
00000000 l    d  .gnu.linkonce.t._ZSt24__uninitialized_fill_n_aIN9__gnu_cxx17__normal_iteratorIPPNS0_15_Hashtable_nodeISt4pairIKN4BEEV7ASTNodeESt6vectorIS5_SaIS5_EEEEES7_ISC_SaISC_EEEEjSC_SC_EvT_T0_RKT1_SaIT2_E	00000000 .gnu.linkonce.t._ZSt24__uninitialized_fill_n_aIN9__gnu_cxx17__normal_iteratorIPPNS0_15_Hashtable_nodeISt4pairIKN4BEEV7ASTNodeESt6vectorIS5_SaIS5_EEEEES7_ISC_SaISC_EEEEjSC_SC_EvT_T0_RKT1_SaIT2_E
00000000 l    d  .gnu.linkonce.t._ZSt8_DestroyIN9__gnu_cxx17__normal_iteratorIPPNS0_15_Hashtable_nodeIN4BEEV7ASTNodeEEESt6vectorIS6_SaIS6_EEEES9_EvT_SC_T0_	00000000 .gnu.linkonce.t._ZSt8_DestroyIN9__gnu_cxx17__normal_iteratorIPPNS0_15_Hashtable_nodeIN4BEEV7ASTNodeEEESt6vectorIS6_SaIS6_EEEES9_EvT_SC_T0_
00000000 l    d  .gnu.linkonce.t._ZSt8_DestroyIN9__gnu_cxx17__normal_iteratorIPPNS0_15_Hashtable_nodeISt4pairIKN4BEEV7ASTNodeESt6vectorIS5_SaIS5_EEEEES7_ISC_SaISC_EEEESE_EvT_SH_T0_	00000000 .gnu.linkonce.t._ZSt8_DestroyIN9__gnu_cxx17__normal_iteratorIPPNS0_15_Hashtable_nodeISt4pairIKN4BEEV7ASTNodeESt6vectorIS5_SaIS5_EEEEES7_ISC_SaISC_EEEESE_EvT_SH_T0_
00000000 l    d  .gnu.linkonce.t._ZSt11lower_boundIPKmmET_S2_S2_RKT0_	00000000 .gnu.linkonce.t._ZSt11lower_boundIPKmmET_S2_S2_RKT0_
00000010 l     F .text	00000070 _Z41__static_initialization_and_destruction_0ii
00000000 l    d  .rodata.str1.1	00000000 .rodata.str1.1
00000000 l    d  .rodata.str1.4	00000000 .rodata.str1.4
00000000 l    d  .gnu.linkonce.t._ZN9__gnu_cxx19_Hashtable_iteratorISt4pairIKN4BEEV7ASTNodeESt6vectorIS3_SaIS3_EEES3_NS3_13ASTNodeHasherESt10_Select1stIS8_ENS3_12ASTNodeEqualESaIS7_EEppEv	00000000 .gnu.linkonce.t._ZN9__gnu_cxx19_Hashtable_iteratorISt4pairIKN4BEEV7ASTNodeESt6vectorIS3_SaIS3_EEES3_NS3_13ASTNodeHasherESt10_Select1stIS8_ENS3_12ASTNodeEqualESaIS7_EEppEv
00000000 l    d  .gnu.linkonce.t._ZNSt6vectorIPN9__gnu_cxx15_Hashtable_nodeIN4BEEV7ASTNodeEEESaIS5_EE14_M_fill_insertENS0_17__normal_iteratorIPS5_S7_EEjRKS5_	00000000 .gnu.linkonce.t._ZNSt6vectorIPN9__gnu_cxx15_Hashtable_nodeIN4BEEV7ASTNodeEEESaIS5_EE14_M_fill_insertENS0_17__normal_iteratorIPS5_S7_EEjRKS5_
00000000 l    d  .gnu.linkonce.t._ZNSt6vectorIPN9__gnu_cxx15_Hashtable_nodeIN4BEEV7ASTNodeEEESaIS5_EE7reserveEj	00000000 .gnu.linkonce.t._ZNSt6vectorIPN9__gnu_cxx15_Hashtable_nodeIN4BEEV7ASTNodeEEESaIS5_EE7reserveEj
00000000 l    d  .gnu.linkonce.t._ZNSt6vectorIPN9__gnu_cxx15_Hashtable_nodeISt4pairIKN4BEEV7ASTNodeES_IS4_SaIS4_EEEEESaISA_EE14_M_fill_insertENS0_17__normal_iteratorIPSA_SC_EEjRKSA_	00000000 .gnu.linkonce.t._ZNSt6vectorIPN9__gnu_cxx15_Hashtable_nodeISt4pairIKN4BEEV7ASTNodeES_IS4_SaIS4_EEEEESaISA_EE14_M_fill_insertENS0_17__normal_iteratorIPSA_SC_EEjRKSA_
00000000 l    d  .gnu.linkonce.t._ZNSt6vectorIPN9__gnu_cxx15_Hashtable_nodeISt4pairIKN4BEEV7ASTNodeES_IS4_SaIS4_EEEEESaISA_EE7reserveEj	00000000 .gnu.linkonce.t._ZNSt6vectorIPN9__gnu_cxx15_Hashtable_nodeISt4pairIKN4BEEV7ASTNodeES_IS4_SaIS4_EEEEESaISA_EE7reserveEj
00000000 l    d  .gnu.linkonce.t._ZN9__gnu_cxx9hashtableIN4BEEV7ASTNodeES2_NS2_13ASTNodeHasherESt9_IdentityIS2_ENS2_12ASTNodeEqualESaIS2_EE22insert_unique_noresizeERKS2_	00000000 .gnu.linkonce.t._ZN9__gnu_cxx9hashtableIN4BEEV7ASTNodeES2_NS2_13ASTNodeHasherESt9_IdentityIS2_ENS2_12ASTNodeEqualESaIS2_EE22insert_unique_noresizeERKS2_
00000000 l    d  .gcc_except_table	00000000 .gcc_except_table
00000000 l    d  .gnu.linkonce.t._ZN9__gnu_cxx9hashtableIN4BEEV7ASTNodeES2_NS2_13ASTNodeHasherESt9_IdentityIS2_ENS2_12ASTNodeEqualESaIS2_EE21insert_equal_noresizeERKS2_	00000000 .gnu.linkonce.t._ZN9__gnu_cxx9hashtableIN4BEEV7ASTNodeES2_NS2_13ASTNodeHasherESt9_IdentityIS2_ENS2_12ASTNodeEqualESaIS2_EE21insert_equal_noresizeERKS2_
00000000 l    d  .gnu.linkonce.t._ZN9__gnu_cxx9hashtableIN4BEEV7ASTNodeES2_NS2_13ASTNodeHasherESt9_IdentityIS2_ENS2_12ASTNodeEqualESaIS2_EE6resizeEj	00000000 .gnu.linkonce.t._ZN9__gnu_cxx9hashtableIN4BEEV7ASTNodeES2_NS2_13ASTNodeHasherESt9_IdentityIS2_ENS2_12ASTNodeEqualESaIS2_EE6resizeEj
00000000 l    d  .gnu.linkonce.t._ZN9__gnu_cxx9hashtableISt4pairIKN4BEEV7ASTNodeES3_ES3_NS3_13ASTNodeHasherESt10_Select1stIS5_ENS3_12ASTNodeEqualESaIS3_EE5clearEv	00000000 .gnu.linkonce.t._ZN9__gnu_cxx9hashtableISt4pairIKN4BEEV7ASTNodeES3_ES3_NS3_13ASTNodeHasherESt10_Select1stIS5_ENS3_12ASTNodeEqualESaIS3_EE5clearEv
00000000 l    d  .gnu.linkonce.t._ZN9__gnu_cxx9hashtableISt4pairIKN4BEEV7ASTNodeES3_ES3_NS3_13ASTNodeHasherESt10_Select1stIS5_ENS3_12ASTNodeEqualESaIS3_EE6resizeEj	00000000 .gnu.linkonce.t._ZN9__gnu_cxx9hashtableISt4pairIKN4BEEV7ASTNodeES3_ES3_NS3_13ASTNodeHasherESt10_Select1stIS5_ENS3_12ASTNodeEqualESaIS3_EE6resizeEj
00000000 l    d  .gnu.linkonce.t._ZSt8_DestroyIPN4BEEV7ASTNodeESaIS1_EEvT_S4_T0_	00000000 .gnu.linkonce.t._ZSt8_DestroyIPN4BEEV7ASTNodeESaIS1_EEvT_S4_T0_
00000000 l    d  .gnu.linkonce.t._ZNSt6vectorIN4BEEV7ASTNodeESaIS1_EED1Ev	00000000 .gnu.linkonce.t._ZNSt6vectorIN4BEEV7ASTNodeESaIS1_EED1Ev
00000000 l    d  .gnu.linkonce.t._ZN9__gnu_cxx9hashtableIN4BEEV7ASTNodeES2_NS2_13ASTNodeHasherESt9_IdentityIS2_ENS2_12ASTNodeEqualESaIS2_EE5clearEv	00000000 .gnu.linkonce.t._ZN9__gnu_cxx9hashtableIN4BEEV7ASTNodeES2_NS2_13ASTNodeHasherESt9_IdentityIS2_ENS2_12ASTNodeEqualESaIS2_EE5clearEv
00000000 l    d  .gnu.linkonce.t._ZSt8_DestroyIN9__gnu_cxx17__normal_iteratorIPN4BEEV7ASTNodeESt6vectorIS3_SaIS3_EEEES6_EvT_S9_T0_	00000000 .gnu.linkonce.t._ZSt8_DestroyIN9__gnu_cxx17__normal_iteratorIPN4BEEV7ASTNodeESt6vectorIS3_SaIS3_EEEES6_EvT_S9_T0_
00000000 l    d  .gnu.linkonce.t._ZNSt6vectorIN4BEEV7ASTNodeESaIS1_EEC1ERKS3_	00000000 .gnu.linkonce.t._ZNSt6vectorIN4BEEV7ASTNodeESaIS1_EEC1ERKS3_
00000000 l    d  .gnu.linkonce.t._ZN9__gnu_cxx9hashtableISt4pairIKN4BEEV7ASTNodeES3_ES3_NS3_13ASTNodeHasherESt10_Select1stIS5_ENS3_12ASTNodeEqualESaIS3_EE14find_or_insertERKS5_	00000000 .gnu.linkonce.t._ZN9__gnu_cxx9hashtableISt4pairIKN4BEEV7ASTNodeES3_ES3_NS3_13ASTNodeHasherESt10_Select1stIS5_ENS3_12ASTNodeEqualESaIS3_EE14find_or_insertERKS5_
00000000 l    d  .gnu.linkonce.t._ZNSt6vectorIN4BEEV7ASTNodeESaIS1_EEaSERKS3_	00000000 .gnu.linkonce.t._ZNSt6vectorIN4BEEV7ASTNodeESaIS1_EEaSERKS3_
00000000 l    d  .gnu.linkonce.t._ZNSt6vectorIN4BEEV7ASTNodeESaIS1_EE15_M_range_insertIN9__gnu_cxx17__normal_iteratorIPS1_S3_EEEEvS8_T_S9_St20forward_iterator_tag	00000000 .gnu.linkonce.t._ZNSt6vectorIN4BEEV7ASTNodeESaIS1_EE15_M_range_insertIN9__gnu_cxx17__normal_iteratorIPS1_S3_EEEEvS8_T_S9_St20forward_iterator_tag
00000000 l    d  .gnu.linkonce.t._ZNSt6vectorIN4BEEV7ASTNodeESaIS1_EE13_M_insert_auxEN9__gnu_cxx17__normal_iteratorIPS1_S3_EERKS1_	00000000 .gnu.linkonce.t._ZNSt6vectorIN4BEEV7ASTNodeESaIS1_EE13_M_insert_auxEN9__gnu_cxx17__normal_iteratorIPS1_S3_EERKS1_
00000000 l    d  .gnu.linkonce.t._ZNSt6vectorIN4BEEV7ASTNodeESaIS1_EE9push_backERKS1_	00000000 .gnu.linkonce.t._ZNSt6vectorIN4BEEV7ASTNodeESaIS1_EE9push_backERKS1_
00000000 l    d  .gnu.linkonce.t._ZN9__gnu_cxx9hashtableISt4pairIKN4BEEV7ASTNodeESt6vectorIS3_SaIS3_EEES3_NS3_13ASTNodeHasherESt10_Select1stIS8_ENS3_12ASTNodeEqualESaIS7_EE6resizeEj	00000000 .gnu.linkonce.t._ZN9__gnu_cxx9hashtableISt4pairIKN4BEEV7ASTNodeESt6vectorIS3_SaIS3_EEES3_NS3_13ASTNodeHasherESt10_Select1stIS8_ENS3_12ASTNodeEqualESaIS7_EE6resizeEj
00000000 l    d  .gnu.linkonce.t._ZN9__gnu_cxx9hashtableISt4pairIKN4BEEV7ASTNodeESt6vectorIS3_SaIS3_EEES3_NS3_13ASTNodeHasherESt10_Select1stIS8_ENS3_12ASTNodeEqualESaIS7_EE14find_or_insertERKS8_	00000000 .gnu.linkonce.t._ZN9__gnu_cxx9hashtableISt4pairIKN4BEEV7ASTNodeESt6vectorIS3_SaIS3_EEES3_NS3_13ASTNodeHasherESt10_Select1stIS8_ENS3_12ASTNodeEqualESaIS7_EE14find_or_insertERKS8_
00000000 l    d  .gnu.linkonce.t._ZN9__gnu_cxx8hash_mapIN4BEEV7ASTNodeESt6vectorIS2_SaIS2_EENS2_13ASTNodeHasherENS2_12ASTNodeEqualESaIS5_EEixERKS2_	00000000 .gnu.linkonce.t._ZN9__gnu_cxx8hash_mapIN4BEEV7ASTNodeESt6vectorIS2_SaIS2_EENS2_13ASTNodeHasherENS2_12ASTNodeEqualESaIS5_EEixERKS2_
00000000 l    d  .gnu.linkonce.t._ZN9__gnu_cxx9hashtableISt4pairIKN4BEEV7ASTNodeESt6vectorIS3_SaIS3_EEES3_NS3_13ASTNodeHasherESt10_Select1stIS8_ENS3_12ASTNodeEqualESaIS7_EE5clearEv	00000000 .gnu.linkonce.t._ZN9__gnu_cxx9hashtableISt4pairIKN4BEEV7ASTNodeESt6vectorIS3_SaIS3_EEES3_NS3_13ASTNodeHasherESt10_Select1stIS8_ENS3_12ASTNodeEqualESaIS7_EE5clearEv
00000000 l    d  .eh_frame	00000000 .eh_frame
00000000 l    d  .note.GNU-stack	00000000 .note.GNU-stack
00000000 l    d  .comment	00000000 .comment
00000000 l    d  .group	00000000 .group
00000000 l    d  .group	00000000 .group
00000000 l    d  .group	00000000 .group
00000000 l    d  .group	00000000 .group
00000000 l    d  .group	00000000 .group
00000000 l    d  .group	00000000 .group
00000000 l    d  .group	00000000 .group
00000000 l    d  .group	00000000 .group
00000000 l    d  .group	00000000 .group
00000000 l    d  .group	00000000 .group
00000000 l    d  .group	00000000 .group
00000000 l    d  .group	00000000 .group
00000000 l    d  .group	00000000 .group
00000000 l    d  .group	00000000 .group
00000000 l    d  .group	00000000 .group
00000000 l    d  .group	00000000 .group
00000000 l    d  .group	00000000 .group
00000000 l    d  .group	00000000 .group
00000000 l    d  .group	00000000 .group
00000000 l    d  .group	00000000 .group
00000000 l    d  .group	00000000 .group
00000000 l    d  .group	00000000 .group
00000000 l    d  .group	00000000 .group
00000000 l    d  .group	00000000 .group
00000000 l    d  .group	00000000 .group
00000000 l    d  .group	00000000 .group
00000000 l    d  .group	00000000 .group
00000000 l    d  .group	00000000 .group
00000000 l    d  .group	00000000 .group
00000000 l    d  .group	00000000 .group
00000000 l    d  .group	00000000 .group
00000000 l    d  .group	00000000 .group
00000000 l    d  .group	00000000 .group
00000000 l    d  .group	00000000 .group
00000000 l    d  .group	00000000 .group
00000000 l    d  .group	00000000 .group
00000000 l    d  .group	00000000 .group
00000000 l    d  .group	00000000 .group
00000000 l    d  .group	00000000 .group
00000000 l    d  .group	00000000 .group
00000000 l    d  .group	00000000 .group
00000000 l    d  .group	00000000 .group
00000000 l    d  .group	00000000 .group
00000000 l    d  .group	00000000 .group
00000000  w    F .gnu.linkonce.t._ZN4BEEV7ASTNodeD1Ev	0000002b _ZN4BEEV7ASTNodeD1Ev
00000000  w    F .gnu.linkonce.t._ZSt8_DestroyIPPN9__gnu_cxx15_Hashtable_nodeISt4pairIKN4BEEV7ASTNodeES4_EEESaIS8_EEvT_SB_T0_	00000019 _ZSt8_DestroyIPPN9__gnu_cxx15_Hashtable_nodeISt4pairIKN4BEEV7ASTNodeES4_EEESaIS8_EEvT_SB_T0_
00000000  w    F .gnu.linkonce.t._ZSt8_DestroyIPPN9__gnu_cxx15_Hashtable_nodeIN4BEEV7ASTNodeEEESaIS5_EEvT_S8_T0_	00000019 _ZSt8_DestroyIPPN9__gnu_cxx15_Hashtable_nodeIN4BEEV7ASTNodeEEESaIS5_EEvT_S8_T0_
00000000  w    F .gnu.linkonce.t._ZSt8_DestroyIPPN9__gnu_cxx15_Hashtable_nodeISt4pairIKN4BEEV7ASTNodeESt6vectorIS4_SaIS4_EEEEESaISB_EEvT_SE_T0_	00000019 _ZSt8_DestroyIPPN9__gnu_cxx15_Hashtable_nodeISt4pairIKN4BEEV7ASTNodeESt6vectorIS4_SaIS4_EEEEESaISB_EEvT_SE_T0_
00000000  w    F .gnu.linkonce.t._ZSt6fill_nIPPN9__gnu_cxx15_Hashtable_nodeISt4pairIKN4BEEV7ASTNodeES4_EEEjS8_ET_SA_T0_RKT1_	00000024 _ZSt6fill_nIPPN9__gnu_cxx15_Hashtable_nodeISt4pairIKN4BEEV7ASTNodeES4_EEEjS8_ET_SA_T0_RKT1_
00000000  w    F .gnu.linkonce.t._ZSt24__uninitialized_fill_n_aIPPN9__gnu_cxx15_Hashtable_nodeISt4pairIKN4BEEV7ASTNodeES4_EEEjS8_S8_EvT_T0_RKT1_SaIT2_E	00000009 _ZSt24__uninitialized_fill_n_aIPPN9__gnu_cxx15_Hashtable_nodeISt4pairIKN4BEEV7ASTNodeES4_EEEjS8_S8_EvT_T0_RKT1_SaIT2_E
00000000  w    F .gnu.linkonce.t._ZSt6fill_nIPPN9__gnu_cxx15_Hashtable_nodeIN4BEEV7ASTNodeEEEjS5_ET_S7_T0_RKT1_	00000024 _ZSt6fill_nIPPN9__gnu_cxx15_Hashtable_nodeIN4BEEV7ASTNodeEEEjS5_ET_S7_T0_RKT1_
00000000  w    F .gnu.linkonce.t._ZSt24__uninitialized_fill_n_aIPPN9__gnu_cxx15_Hashtable_nodeIN4BEEV7ASTNodeEEEjS5_S5_EvT_T0_RKT1_SaIT2_E	00000009 _ZSt24__uninitialized_fill_n_aIPPN9__gnu_cxx15_Hashtable_nodeIN4BEEV7ASTNodeEEEjS5_S5_EvT_T0_RKT1_SaIT2_E
00000000  w    F .gnu.linkonce.t._ZSt6fill_nIPPN9__gnu_cxx15_Hashtable_nodeISt4pairIKN4BEEV7ASTNodeESt6vectorIS4_SaIS4_EEEEEjSB_ET_SD_T0_RKT1_	00000024 _ZSt6fill_nIPPN9__gnu_cxx15_Hashtable_nodeISt4pairIKN4BEEV7ASTNodeESt6vectorIS4_SaIS4_EEEEEjSB_ET_SD_T0_RKT1_
00000000  w    F .gnu.linkonce.t._ZSt24__uninitialized_fill_n_aIPPN9__gnu_cxx15_Hashtable_nodeISt4pairIKN4BEEV7ASTNodeESt6vectorIS4_SaIS4_EEEEEjSB_SB_EvT_T0_RKT1_SaIT2_E	00000009 _ZSt24__uninitialized_fill_n_aIPPN9__gnu_cxx15_Hashtable_nodeISt4pairIKN4BEEV7ASTNodeESt6vectorIS4_SaIS4_EEEEEjSB_SB_EvT_T0_RKT1_SaIT2_E
00000000         *UND*	00000000 _ZNSt8ios_base4InitD1Ev
00000000  w    F .gnu.linkonce.t._ZSt4fillIN9__gnu_cxx17__normal_iteratorIPPNS0_15_Hashtable_nodeIN4BEEV7ASTNodeEEESt6vectorIS6_SaIS6_EEEES6_EvT_SC_RKT0_	0000001d _ZSt4fillIN9__gnu_cxx17__normal_iteratorIPPNS0_15_Hashtable_nodeIN4BEEV7ASTNodeEEESt6vectorIS6_SaIS6_EEEES6_EvT_SC_RKT0_
00000000  w    F .gnu.linkonce.t._ZSt4fillIN9__gnu_cxx17__normal_iteratorIPPNS0_15_Hashtable_nodeISt4pairIKN4BEEV7ASTNodeESt6vectorIS5_SaIS5_EEEEES7_ISC_SaISC_EEEESC_EvT_SH_RKT0_	0000001d _ZSt4fillIN9__gnu_cxx17__normal_iteratorIPPNS0_15_Hashtable_nodeISt4pairIKN4BEEV7ASTNodeESt6vectorIS5_SaIS5_EEEEES7_ISC_SaISC_EEEESC_EvT_SH_RKT0_
00000000  w    F .gnu.linkonce.t._ZNK4BEEV7ASTNodeixEj	0000002f _ZNK4BEEV7ASTNodeixEj
00000000         *UND*	00000000 _ZN4BEEV7ASTNodeC1ERKS0_
00000000  w    F .gnu.linkonce.t._ZSt6fill_nIN9__gnu_cxx17__normal_iteratorIPPNS0_15_Hashtable_nodeIN4BEEV7ASTNodeEEESt6vectorIS6_SaIS6_EEEEjS6_ET_SC_T0_RKT1_	00000034 _ZSt6fill_nIN9__gnu_cxx17__normal_iteratorIPPNS0_15_Hashtable_nodeIN4BEEV7ASTNodeEEESt6vectorIS6_SaIS6_EEEEjS6_ET_SC_T0_RKT1_
00000000  w    F .gnu.linkonce.t._ZSt24__uninitialized_fill_n_aIN9__gnu_cxx17__normal_iteratorIPPNS0_15_Hashtable_nodeIN4BEEV7ASTNodeEEESt6vectorIS6_SaIS6_EEEEjS6_S6_EvT_T0_RKT1_SaIT2_E	0000001f _ZSt24__uninitialized_fill_n_aIN9__gnu_cxx17__normal_iteratorIPPNS0_15_Hashtable_nodeIN4BEEV7ASTNodeEEESt6vectorIS6_SaIS6_EEEEjS6_S6_EvT_T0_RKT1_SaIT2_E
00000000  w    F .gnu.linkonce.t._ZSt6fill_nIN9__gnu_cxx17__normal_iteratorIPPNS0_15_Hashtable_nodeISt4pairIKN4BEEV7ASTNodeESt6vectorIS5_SaIS5_EEEEES7_ISC_SaISC_EEEEjSC_ET_SH_T0_RKT1_	00000034 _ZSt6fill_nIN9__gnu_cxx17__normal_iteratorIPPNS0_15_Hashtable_nodeISt4pairIKN4BEEV7ASTNodeESt6vectorIS5_SaIS5_EEEEES7_ISC_SaISC_EEEEjSC_ET_SH_T0_RKT1_
00000000  w    F .gnu.linkonce.t._ZSt24__uninitialized_fill_n_aIN9__gnu_cxx17__normal_iteratorIPPNS0_15_Hashtable_nodeISt4pairIKN4BEEV7ASTNodeESt6vectorIS5_SaIS5_EEEEES7_ISC_SaISC_EEEEjSC_SC_EvT_T0_RKT1_SaIT2_E	0000001f _ZSt24__uninitialized_fill_n_aIN9__gnu_cxx17__normal_iteratorIPPNS0_15_Hashtable_nodeISt4pairIKN4BEEV7ASTNodeESt6vectorIS5_SaIS5_EEEEES7_ISC_SaISC_EEEEjSC_SC_EvT_T0_RKT1_SaIT2_E
00000000  w    F .gnu.linkonce.t._ZSt8_DestroyIN9__gnu_cxx17__normal_iteratorIPPNS0_15_Hashtable_nodeIN4BEEV7ASTNodeEEESt6vectorIS6_SaIS6_EEEES9_EvT_SC_T0_	00000019 _ZSt8_DestroyIN9__gnu_cxx17__normal_iteratorIPPNS0_15_Hashtable_nodeIN4BEEV7ASTNodeEEESt6vectorIS6_SaIS6_EEEES9_EvT_SC_T0_
00000000  w    F .gnu.linkonce.t._ZSt8_DestroyIN9__gnu_cxx17__normal_iteratorIPPNS0_15_Hashtable_nodeISt4pairIKN4BEEV7ASTNodeESt6vectorIS5_SaIS5_EEEEES7_ISC_SaISC_EEEESE_EvT_SH_T0_	00000019 _ZSt8_DestroyIN9__gnu_cxx17__normal_iteratorIPPNS0_15_Hashtable_nodeISt4pairIKN4BEEV7ASTNodeESt6vectorIS5_SaIS5_EEEEES7_ISC_SaISC_EEEESE_EvT_SH_T0_
00000000  w    F .gnu.linkonce.t._ZSt11lower_boundIPKmmET_S2_S2_RKT0_	00000043 _ZSt11lower_boundIPKmmET_S2_S2_RKT0_
00000000         *UND*	00000000 _ZNSt8ios_base4InitC1Ev
00000000         *UND*	00000000 __dso_handle
00000000         *UND*	00000000 __cxa_atexit
00000090 g     F .text	0000012e _ZN4BEEV7BeevMgr22CheckSimplifyInvariantERKNS_7ASTNodeES3_
00000000         *UND*	00000000 _ZN4BEEV8optimizeE
00000000         *UND*	00000000 _ZN4BEEV7BeevMgr8NodeSizeERKNS_7ASTNodeEb
00000000         *UND*	00000000 _ZSt4cerr
00000000         *UND*	00000000 _ZStlsISt11char_traitsIcEERSt13basic_ostreamIcT_ES5_PKc
00000000         *UND*	00000000 _ZNK4BEEV7ASTNode9LispPrintERSoi
00000000         *UND*	00000000 _ZSt4endlIcSt11char_traitsIcEERSt13basic_ostreamIT_T0_ES6_
00000000         *UND*	00000000 _ZNSolsEm
00000000         *UND*	00000000 _ZN4BEEV10FatalErrorEPKcRKNS_7ASTNodeEi
000001c0 g     F .text	00000062 _ZN4BEEV7BeevMgr22CheckAlwaysTrueFormMapERKNS_7ASTNodeE
00000000         *UND*	00000000 _ZN4BEEV16CountersAndStatsEPKc
00000230 g     F .text	0000004a _ZN4BEEV7BeevMgr20CheckSubstitutionMapERKNS_7ASTNodeE
00000000  w    F .gnu.linkonce.t._ZN9__gnu_cxx19_Hashtable_iteratorISt4pairIKN4BEEV7ASTNodeESt6vectorIS3_SaIS3_EEES3_NS3_13ASTNodeHasherESt10_Select1stIS8_ENS3_12ASTNodeEqualESaIS7_EEppEv	00000058 _ZN9__gnu_cxx19_Hashtable_iteratorISt4pairIKN4BEEV7ASTNodeESt6vectorIS3_SaIS3_EEES3_NS3_13ASTNodeHasherESt10_Select1stIS8_ENS3_12ASTNodeEqualESaIS7_EEppEv
00000000  w    F .gnu.linkonce.t._ZNSt6vectorIPN9__gnu_cxx15_Hashtable_nodeIN4BEEV7ASTNodeEEESaIS5_EE14_M_fill_insertENS0_17__normal_iteratorIPS5_S7_EEjRKS5_	00000206 _ZNSt6vectorIPN9__gnu_cxx15_Hashtable_nodeIN4BEEV7ASTNodeEEESaIS5_EE14_M_fill_insertENS0_17__normal_iteratorIPS5_S7_EEjRKS5_
00000000         *UND*	00000000 _Znwj
00000000         *UND*	00000000 memmove
00000000         *UND*	00000000 _ZdlPv
00000000         *UND*	00000000 _ZSt17__throw_bad_allocv
00000000         *UND*	00000000 _ZSt20__throw_length_errorPKc
00000000  w    F .gnu.linkonce.t._ZNSt6vectorIPN9__gnu_cxx15_Hashtable_nodeIN4BEEV7ASTNodeEEESaIS5_EE7reserveEj	000000bd _ZNSt6vectorIPN9__gnu_cxx15_Hashtable_nodeIN4BEEV7ASTNodeEEESaIS5_EE7reserveEj
00000000  w    F .gnu.linkonce.t._ZNSt6vectorIPN9__gnu_cxx15_Hashtable_nodeISt4pairIKN4BEEV7ASTNodeES_IS4_SaIS4_EEEEESaISA_EE14_M_fill_insertENS0_17__normal_iteratorIPSA_SC_EEjRKSA_	00000206 _ZNSt6vectorIPN9__gnu_cxx15_Hashtable_nodeISt4pairIKN4BEEV7ASTNodeES_IS4_SaIS4_EEEEESaISA_EE14_M_fill_insertENS0_17__normal_iteratorIPSA_SC_EEjRKSA_
00000000  w    F .gnu.linkonce.t._ZNSt6vectorIPN9__gnu_cxx15_Hashtable_nodeISt4pairIKN4BEEV7ASTNodeES_IS4_SaIS4_EEEEESaISA_EE7reserveEj	000000bd _ZNSt6vectorIPN9__gnu_cxx15_Hashtable_nodeISt4pairIKN4BEEV7ASTNodeES_IS4_SaIS4_EEEEESaISA_EE7reserveEj
00000000         *UND*	00000000 _Unwind_Resume
00000000  w    F .gnu.linkonce.t._ZN9__gnu_cxx9hashtableIN4BEEV7ASTNodeES2_NS2_13ASTNodeHasherESt9_IdentityIS2_ENS2_12ASTNodeEqualESaIS2_EE22insert_unique_noresizeERKS2_	000000e5 _ZN9__gnu_cxx9hashtableIN4BEEV7ASTNodeES2_NS2_13ASTNodeHasherESt9_IdentityIS2_ENS2_12ASTNodeEqualESaIS2_EE22insert_unique_noresizeERKS2_
00000000         *UND*	00000000 __cxa_begin_catch
00000000         *UND*	00000000 __cxa_rethrow
00000000         *UND*	00000000 __cxa_end_catch
00000000  w    F .gnu.linkonce.t._ZN9__gnu_cxx9hashtableIN4BEEV7ASTNodeES2_NS2_13ASTNodeHasherESt9_IdentityIS2_ENS2_12ASTNodeEqualESaIS2_EE21insert_equal_noresizeERKS2_	00000131 _ZN9__gnu_cxx9hashtableIN4BEEV7ASTNodeES2_NS2_13ASTNodeHasherESt9_IdentityIS2_ENS2_12ASTNodeEqualESaIS2_EE21insert_equal_noresizeERKS2_
00000000  w    F .gnu.linkonce.t._ZN9__gnu_cxx9hashtableIN4BEEV7ASTNodeES2_NS2_13ASTNodeHasherESt9_IdentityIS2_ENS2_12ASTNodeEqualESaIS2_EE6resizeEj	00000187 _ZN9__gnu_cxx9hashtableIN4BEEV7ASTNodeES2_NS2_13ASTNodeHasherESt9_IdentityIS2_ENS2_12ASTNodeEqualESaIS2_EE6resizeEj
00000280 g     F .text	00000034 _ZN4BEEV7BeevMgr23UpdateAlwaysTrueFormMapERKNS_7ASTNodeE
00000000  w    F .gnu.linkonce.t._ZN9__gnu_cxx9hashtableISt4pairIKN4BEEV7ASTNodeES3_ES3_NS3_13ASTNodeHasherESt10_Select1stIS5_ENS3_12ASTNodeEqualESaIS3_EE5clearEv	0000011e _ZN9__gnu_cxx9hashtableISt4pairIKN4BEEV7ASTNodeES3_ES3_NS3_13ASTNodeHasherESt10_Select1stIS5_ENS3_12ASTNodeEqualESaIS3_EE5clearEv
00000000  w    F .gnu.linkonce.t._ZN9__gnu_cxx9hashtableISt4pairIKN4BEEV7ASTNodeES3_ES3_NS3_13ASTNodeHasherESt10_Select1stIS5_ENS3_12ASTNodeEqualESaIS3_EE6resizeEj	00000187 _ZN9__gnu_cxx9hashtableISt4pairIKN4BEEV7ASTNodeES3_ES3_NS3_13ASTNodeHasherESt10_Select1stIS5_ENS3_12ASTNodeEqualESaIS3_EE6resizeEj
00000000  w    F .gnu.linkonce.t._ZSt8_DestroyIPN4BEEV7ASTNodeESaIS1_EEvT_S4_T0_	00000047 _ZSt8_DestroyIPN4BEEV7ASTNodeESaIS1_EEvT_S4_T0_
00000000  w    F .gnu.linkonce.t._ZNSt6vectorIN4BEEV7ASTNodeESaIS1_EED1Ev	00000054 _ZNSt6vectorIN4BEEV7ASTNodeESaIS1_EED1Ev
00000000  w    F .gnu.linkonce.t._ZN9__gnu_cxx9hashtableIN4BEEV7ASTNodeES2_NS2_13ASTNodeHasherESt9_IdentityIS2_ENS2_12ASTNodeEqualESaIS2_EE5clearEv	000000c8 _ZN9__gnu_cxx9hashtableIN4BEEV7ASTNodeES2_NS2_13ASTNodeHasherESt9_IdentityIS2_ENS2_12ASTNodeEqualESaIS2_EE5clearEv
000002c0 g     F .text	00000161 _ZN4BEEV7BeevMgr18CreateSimplifiedEQERKNS_7ASTNodeES3_
00000000         *UND*	00000000 _ZN4BEEV13_empty_ASTVecE
00000000         *UND*	00000000 _ZN4BEEV7BeevMgr10CreateNodeENS_4KindERKNS_7ASTNodeES4_RKSt6vectorIS2_SaIS2_EE
00000000  w    F .gnu.linkonce.t._ZSt8_DestroyIN9__gnu_cxx17__normal_iteratorIPN4BEEV7ASTNodeESt6vectorIS3_SaIS3_EEEES6_EvT_S9_T0_	00000047 _ZSt8_DestroyIN9__gnu_cxx17__normal_iteratorIPN4BEEV7ASTNodeESt6vectorIS3_SaIS3_EEEES6_EvT_S9_T0_
00000000  w    F .gnu.linkonce.t._ZNSt6vectorIN4BEEV7ASTNodeESaIS1_EEC1ERKS3_	0000011c _ZNSt6vectorIN4BEEV7ASTNodeESaIS1_EEC1ERKS3_
00000000  w    F .gnu.linkonce.t._ZN9__gnu_cxx9hashtableISt4pairIKN4BEEV7ASTNodeES3_ES3_NS3_13ASTNodeHasherESt10_Select1stIS5_ENS3_12ASTNodeEqualESaIS3_EE14find_or_insertERKS5_	00000115 _ZN9__gnu_cxx9hashtableISt4pairIKN4BEEV7ASTNodeES3_ES3_NS3_13ASTNodeHasherESt10_Select1stIS5_ENS3_12ASTNodeEqualESaIS3_EE14find_or_insertERKS5_
00000430 g     F .text	000003cf _ZN4BEEV7BeevMgr16CheckSimplifyMapERKNS_7ASTNodeERS1_b
00000000         *UND*	00000000 _ZN4BEEV7BeevMgr10CreateNodeENS_4KindERKNS_7ASTNodeERKSt6vectorIS2_SaIS2_EE
00000800 g     F .text	000002b0 _ZN4BEEV7BeevMgr17UpdateSimplifyMapERKNS_7ASTNodeES3_b
00000ab0 g     F .text	0000008a _ZN4BEEV7BeevMgr20CheckSubstitutionMapERKNS_7ASTNodeERS1_
00000b40 g     F .text	0000008a _ZN4BEEV7BeevMgr19CheckMultInverseMapERKNS_7ASTNodeERS1_
00000bd0 g     F .text	0000016d _ZN4BEEV7BeevMgr20UpdateMultInverseMapERKNS_7ASTNodeES3_
00000d40 g     F .text	000010c8 _ZN4BEEV7BeevMgr20CreateSimplifiedINEQENS_4KindERKNS_7ASTNodeES4_b
00000000         *UND*	00000000 _ZN4BEEV7BeevMgr15CreateZeroConstEj
00000000         *UND*	00000000 _ZN4BEEV7BeevMgr14CreateOneConstEj
00000000         *UND*	00000000 _ZN4BEEV7BeevMgr14CreateMaxConstEj
00000000         *UND*	00000000 _ZN4BEEV10FatalErrorEPKc
00000000         *UND*	00000000 _ZN4BEEV7BeevMgr16BVConstEvaluatorERKNS_7ASTNodeE
00000000  w    F .gnu.linkonce.t._ZNSt6vectorIN4BEEV7ASTNodeESaIS1_EEaSERKS3_	0000030c _ZNSt6vectorIN4BEEV7ASTNodeESaIS1_EEaSERKS3_
00000000  w    F .gnu.linkonce.t._ZNSt6vectorIN4BEEV7ASTNodeESaIS1_EE15_M_range_insertIN9__gnu_cxx17__normal_iteratorIPS1_S3_EEEEvS8_T_S9_St20forward_iterator_tag	000005fb _ZNSt6vectorIN4BEEV7ASTNodeESaIS1_EE15_M_range_insertIN9__gnu_cxx17__normal_iteratorIPS1_S3_EEEEvS8_T_S9_St20forward_iterator_tag
00001e10 g     F .text	000002fb _ZN4BEEV7BeevMgr12BVConstIsOddERKNS_7ASTNodeE
00000000         *UND*	00000000 _ZN4BEEV16_kind_categoriesE
00000000         *UND*	00000000 _ZN4BEEV7BeevMgr10CreateNodeENS_4KindERKNS_7ASTNodeES4_S4_RKSt6vectorIS2_SaIS2_EE
00000000  w    F .gnu.linkonce.t._ZNSt6vectorIN4BEEV7ASTNodeESaIS1_EE13_M_insert_auxEN9__gnu_cxx17__normal_iteratorIPS1_S3_EERKS1_	0000036e _ZNSt6vectorIN4BEEV7ASTNodeESaIS1_EE13_M_insert_auxEN9__gnu_cxx17__normal_iteratorIPS1_S3_EERKS1_
00000000  w    F .gnu.linkonce.t._ZNSt6vectorIN4BEEV7ASTNodeESaIS1_EE9push_backERKS1_	0000004b _ZNSt6vectorIN4BEEV7ASTNodeESaIS1_EE9push_backERKS1_
00002110 g     F .text	0000129d _ZN4BEEV7BeevMgr21MultiplicativeInverseERKNS_7ASTNodeE
00000000         *UND*	00000000 _ZN4BEEV7BeevMgr13CreateBVConstEjy
00000000  w    F .gnu.linkonce.t._ZN9__gnu_cxx9hashtableISt4pairIKN4BEEV7ASTNodeESt6vectorIS3_SaIS3_EEES3_NS3_13ASTNodeHasherESt10_Select1stIS8_ENS3_12ASTNodeEqualESaIS7_EE6resizeEj	00000187 _ZN9__gnu_cxx9hashtableISt4pairIKN4BEEV7ASTNodeESt6vectorIS3_SaIS3_EEES3_NS3_13ASTNodeHasherESt10_Select1stIS8_ENS3_12ASTNodeEqualESaIS7_EE6resizeEj
000033b0 g     F .text	00000441 _ZN4BEEV7BeevMgr15FlattenOneLevelERKNS_7ASTNodeE
00000000         *UND*	00000000 _ZN4BEEV7BeevMgr10CreateNodeENS_4KindERKSt6vectorINS_7ASTNodeESaIS3_EE
00000000  w    F .gnu.linkonce.t._ZN9__gnu_cxx9hashtableISt4pairIKN4BEEV7ASTNodeESt6vectorIS3_SaIS3_EEES3_NS3_13ASTNodeHasherESt10_Select1stIS8_ENS3_12ASTNodeEqualESaIS7_EE14find_or_insertERKS8_	00000115 _ZN9__gnu_cxx9hashtableISt4pairIKN4BEEV7ASTNodeESt6vectorIS3_SaIS3_EEES3_NS3_13ASTNodeHasherESt10_Select1stIS8_ENS3_12ASTNodeEqualESaIS7_EE14find_or_insertERKS8_
00000000  w    F .gnu.linkonce.t._ZN9__gnu_cxx8hash_mapIN4BEEV7ASTNodeESt6vectorIS2_SaIS2_EENS2_13ASTNodeHasherENS2_12ASTNodeEqualESaIS5_EEixERKS2_	00000166 _ZN9__gnu_cxx8hash_mapIN4BEEV7ASTNodeESt6vectorIS2_SaIS2_EENS2_13ASTNodeHasherENS2_12ASTNodeEqualESaIS5_EEixERKS2_
00000000  w    F .gnu.linkonce.t._ZN9__gnu_cxx9hashtableISt4pairIKN4BEEV7ASTNodeESt6vectorIS3_SaIS3_EEES3_NS3_13ASTNodeHasherESt10_Select1stIS8_ENS3_12ASTNodeEqualESaIS7_EE5clearEv	00000140 _ZN9__gnu_cxx9hashtableISt4pairIKN4BEEV7ASTNodeESt6vectorIS3_SaIS3_EEES3_NS3_13ASTNodeHasherESt10_Select1stIS8_ENS3_12ASTNodeEqualESaIS7_EE5clearEv
00003800 g     F .text	000002ce _ZN4BEEV7BeevMgr9TermOrderERKNS_7ASTNodeES3_
00003ad0 g     F .text	000007eb _ZN4BEEV7BeevMgr23FillUp_ArrReadIndex_VecERKNS_7ASTNodeES3_
000042c0 g     F .text	0000030a _ZN4BEEV7BeevMgr21UpdateSubstitutionMapERKNS_7ASTNodeES3_
000045d0 g     F .text	00000549 _ZN4BEEV7BeevMgr23CreateSimplifiedTermITEERKNS_7ASTNodeES3_S3_
00004b20 g     F .text	00000845 _ZN4BEEV7BeevMgr16ConvertBVSXToITEERKNS_7ASTNodeE
00000000         *UND*	00000000 _ZNSs4_Rep11_S_terminalE
00000000         *UND*	00000000 _ZNSs4_Rep20_S_empty_rep_storageE
00000000         *UND*	00000000 _ZNSs7reserveEj
00000000         *UND*	00000000 _ZN4BEEV7BeevMgr13CreateBVConstEPKci
00000000         *UND*	00000000 _ZN9__gnu_cxx18__exchange_and_addEPVii
00000000         *UND*	00000000 _ZNSs4_Rep10_M_destroyERKSaIcE
00005370 g     F .text	00000ee6 _ZN4BEEV7BeevMgr20ReadOverWrite_To_ITEERKNS_7ASTNodeE
00006980 g     F .text	00008a4c _ZN4BEEV7BeevMgr12SimplifyTermERKNS_7ASTNodeE
00014570 g     F .text	00000671 _ZN4BEEV7BeevMgr15SimplifyFormulaERKNS_7ASTNodeEb
00006260 g     F .text	000005d5 _ZN4BEEV7BeevMgr12RemoveWritesERKNS_7ASTNodeE
00000000         *UND*	00000000 _ZN4BEEV7BeevMgr6NewVarEj
00000000         *UND*	00000000 _ZN4BEEV7BeevMgr12ASTNodeStatsEPKcRKNS_7ASTNodeE
00006840 g     F .text	00000137 _ZN4BEEV7BeevMgr21RemoveWrites_TopLevelERKNS_7ASTNodeE
00014bf0 g     F .text	0000093d _ZN4BEEV7BeevMgr22SimplifyWrites_InPlaceERKNS_7ASTNodeE
00000000         *UND*	00000000 _ZN4BEEV7BeevMgr11BVTypeCheckERKNS_7ASTNodeE
00000000         *UND*	00000000 _ZN4BEEV15wordlevel_solveE
00000000         *UND*	00000000 _ZN4BEEV7BeevMgr14CheckSolverMapERKNS_7ASTNodeERS1_
00000000         *UND*	00000000 _ZNK4BEEV7ASTNode10GetBVConstEv
00000000         *UND*	00000000 _ZN4BEEV11SortByArithERSt6vectorINS_7ASTNodeESaIS1_EE
00011310 g     F .text	000012a1 _ZN4BEEV7BeevMgr22DistributeMultOverPlusERKNS_7ASTNodeEb
0000f3d0 g     F .text	00001f3f _ZN4BEEV7BeevMgr16CombineLikeTermsERKNS_7ASTNodeE
000125c0 g     F .text	00000b74 _ZN4BEEV7BeevMgr11LhsMinusRhsERKNS_7ASTNodeE
00013140 g     F .text	00000082 _ZN4BEEV7BeevMgr21SimplifyTerm_TopLevelERKNS_7ASTNodeE
000131d0 g     F .text	0000139d _ZN4BEEV7BeevMgr21SimplifyAtomicFormulaERKNS_7ASTNodeEb
0001a780 g     F .text	00000b13 _ZN4BEEV7BeevMgr12ITEOpt_InEqsERKNS_7ASTNodeE
00000000         *UND*	00000000 _ZN4BEEV8isAtomicENS_4KindE
00015530 g     F .text	000014f7 _ZN4BEEV7BeevMgr18SimplifyIteFormulaERKNS_7ASTNodeEb
000197e0 g     F .text	00000464 _ZN4BEEV7BeevMgr18SimplifyNotFormulaERKNS_7ASTNodeEb
00019c50 g     F .text	00000b2f _ZN4BEEV7BeevMgr20SimplifyAndOrFormulaERKNS_7ASTNodeEb
00018960 g     F .text	000005f7 _ZN4BEEV7BeevMgr19SimplifyNandFormulaERKNS_7ASTNodeEb
00018f60 g     F .text	00000880 _ZN4BEEV7BeevMgr18SimplifyXorFormulaERKNS_7ASTNodeEb
00018360 g     F .text	000005f7 _ZN4BEEV7BeevMgr18SimplifyNorFormulaERKNS_7ASTNodeEb
00016a30 g     F .text	00000be5 _ZN4BEEV7BeevMgr18SimplifyIffFormulaERKNS_7ASTNodeEb
00017620 g     F .text	00000d33 _ZN4BEEV7BeevMgr22SimplifyImpliesFormulaERKNS_7ASTNodeEb
0001b2a0 g     F .text	0000008e _ZN4BEEV7BeevMgr24SimplifyFormula_TopLevelERKNS_7ASTNodeEb
0001b330 g     F .text	0000002c _ZN4BEEV7BeevMgr30SimplifyFormula_NoRemoveWritesERKNS_7ASTNodeEb
0001b360 g     F .text	00000617 _ZN4BEEV7BeevMgr13VarSeenInTermERKNS_7ASTNodeES3_
0001b980 g     F .text	00000ae5 _ZN4BEEV7BeevMgr21CreateSubstitutionMapERKNS_7ASTNodeE
00000000         *UND*	00000000 __gxx_personality_v0



consteval.o:     file format elf32-i386

SYMBOL TABLE:
00000000 l    df *ABS*	00000000 consteval.cpp
00000000 l    d  .text	00000000 .text
00000000 l    d  .data	00000000 .data
00000000 l    d  .bss	00000000 .bss
00000000 l    d  .ctors	00000000 .ctors
00000080 l     F .text	00000010 _GLOBAL__I__ZN4BEEV7BeevMgr16BVConstEvaluatorERKNS_7ASTNodeE
00000000 l     O .bss	00000004 _ZN7MINISAT9lit_ErrorE
00000004 l     O .bss	00000004 _ZN7MINISAT9lit_UndefE
00000008 l     O .bss	00000004 _ZN7MINISAT7l_UndefE
0000000c l     O .bss	00000004 _ZN7MINISAT7l_FalseE
00000010 l     O .bss	00000004 _ZN7MINISAT6l_TrueE
00000014 l     O .bss	00000001 _ZSt8__ioinit
00000000 l     F .text	00000010 __tcf_0
00000010 l     F .text	00000070 _Z41__static_initialization_and_destruction_0ii
00000000 l    d  .rodata.str1.1	00000000 .rodata.str1.1
00000090 l     F .text	000000cd _ZN4BEEV21BVConstEvaluatorErrorEN10CONSTANTBV7ErrCodeERKNS_7ASTNodeE
00000000 l    d  .gcc_except_table	00000000 .gcc_except_table
00000000 l    d  .gnu.linkonce.t._ZSt8_DestroyIPN4BEEV7ASTNodeESaIS1_EEvT_S4_T0_	00000000 .gnu.linkonce.t._ZSt8_DestroyIPN4BEEV7ASTNodeESaIS1_EEvT_S4_T0_
00000000 l    d  .rodata.str1.4	00000000 .rodata.str1.4
00000000 l    d  .rodata	00000000 .rodata
00000000 l    d  .eh_frame	00000000 .eh_frame
00000000 l    d  .note.GNU-stack	00000000 .note.GNU-stack
00000000 l    d  .comment	00000000 .comment
00000000 l    d  .group	00000000 .group
00000000         *UND*	00000000 _ZNSt8ios_base4InitD1Ev
00000000         *UND*	00000000 _ZNSt8ios_base4InitC1Ev
00000000         *UND*	00000000 __dso_handle
00000000         *UND*	00000000 __cxa_atexit
00000000         *UND*	00000000 _Unwind_Resume
00000000         *UND*	00000000 _ZNSsC1EPKcRKSaIcE
00000000         *UND*	00000000 BitVector_Error
00000000         *UND*	00000000 strlen
00000000         *UND*	00000000 _ZNSs6appendEPKcj
00000000         *UND*	00000000 _ZN4BEEV10FatalErrorEPKcRKNS_7ASTNodeEi
00000000         *UND*	00000000 _ZNSs4_Rep20_S_empty_rep_storageE
00000000         *UND*	00000000 _ZN9__gnu_cxx18__exchange_and_addEPVii
00000000         *UND*	00000000 _ZNSs4_Rep10_M_destroyERKSaIcE
00000000  w    F .gnu.linkonce.t._ZSt8_DestroyIPN4BEEV7ASTNodeESaIS1_EEvT_S4_T0_	00000047 _ZSt8_DestroyIPN4BEEV7ASTNodeESaIS1_EEvT_S4_T0_
00000160 g     F .text	00001984 _ZN4BEEV7BeevMgr16BVConstEvaluatorERKNS_7ASTNodeE
00000000         *UND*	00000000 _ZN4BEEV7BeevMgr14CheckSolverMapERKNS_7ASTNodeERS1_
00000000         *UND*	00000000 _ZN4BEEV7ASTNodeC1ERKS0_
00000000         *UND*	00000000 _ZN4BEEV7BeevMgr15UpdateSolverMapERKNS_7ASTNodeES3_
00000000         *UND*	00000000 _ZNK4BEEV7ASTNode10GetBVConstEv
00000000         *UND*	00000000 BitVector_Compare
00000000         *UND*	00000000 BitVector_Lexicompare
00000000         *UND*	00000000 BitVector_Create
00000000         *UND*	00000000 BitVector_Sign
00000000         *UND*	00000000 BitVector_Interval_Copy
00000000         *UND*	00000000 _ZN4BEEV7BeevMgr13CreateBVConstEPjj
00000000         *UND*	00000000 BitVector_equal
00000000         *UND*	00000000 BitVector_sub
00000000         *UND*	00000000 _Znwj
00000000         *UND*	00000000 BitVector_add
00000000         *UND*	00000000 _ZN4BEEV10FatalErrorEPKc
00000000         *UND*	00000000 BitVector_Destroy
00000000         *UND*	00000000 Set_ExclusiveOr
00000000         *UND*	00000000 Set_Intersection
00000000         *UND*	00000000 _ZN4BEEV7BeevMgr21TranslateSignedDivModERKNS_7ASTNodeE
00000000         *UND*	00000000 BitVector_Concat
00000000         *UND*	00000000 Set_Complement
00000000         *UND*	00000000 Set_Union
00000000         *UND*	00000000 BitVector_Multiply
00000000         *UND*	00000000 BitVector_Negate
00000000         *UND*	00000000 BitVector_Clone
00000000         *UND*	00000000 BitVector_Div_Pos
00000000         *UND*	00000000 _ZdlPv
00000000         *UND*	00000000 BitVector_Copy
00000000         *UND*	00000000 BitVector_Fill
00000000         *UND*	00000000 _ZSt17__throw_bad_allocv
00000000         *UND*	00000000 __cxa_begin_catch
00000000         *UND*	00000000 __cxa_rethrow
00000000         *UND*	00000000 __cxa_end_catch
00000000         *UND*	00000000 __gxx_personality_v0



constantbv.o:     file format elf32-i386

SYMBOL TABLE:
00000000 l    df *ABS*	00000000 constantbv.cpp
00000000 l    d  .text	00000000 .text
00000000 l    d  .data	00000000 .data
00000000 l    d  .bss	00000000 .bss
00000000 l     O .bss	00000004 _ZN10CONSTANTBV10BITMASKTABE
00000004 l     O .bss	00000004 _ZN10CONSTANTBV7MODMASKE
00000008 l     O .bss	00000004 _ZN10CONSTANTBV7LOGBITSE
0000000c l     O .bss	00000004 _ZN10CONSTANTBV3MSBE
00000000 l     O .data	00000004 _ZN10CONSTANTBV3LSBE
00000010 l     O .bss	00000004 _ZN10CONSTANTBV4BITSE
00000000 l    d  .rodata	00000000 .rodata
00000000 l     O .rodata	00000400 BitVector_BYTENORM
00000014 l     O .bss	00000004 _ZN10CONSTANTBV6FACTORE
00000018 l     O .bss	00000004 _ZN10CONSTANTBV8LONGBITSE
0000001c l     O .bss	00000004 _ZN10CONSTANTBV5LOG10E
00000020 l     O .bss	00000004 _ZN10CONSTANTBV5EXP10E
00000000 l     F .text	00000020 _ZN10CONSTANTBV20BIT_VECTOR_zro_wordsEPjj
00000020 l     F .text	00000023 _ZN10CONSTANTBV20BIT_VECTOR_cpy_wordsEPjS0_j
00000050 l     F .text	0000005a _ZN10CONSTANTBV20BIT_VECTOR_mov_wordsEPjS0_j
000000b0 l     F .text	00000034 _ZN10CONSTANTBV18BIT_VECTOR_reverseEPhj
000000f0 l     F .text	00000051 _ZN10CONSTANTBV18BIT_VECTOR_int2strEPhj
00000000 l    d  .rodata.str1.1	00000000 .rodata.str1.1
00000000 l    d  .rodata.str1.4	00000000 .rodata.str1.4
00000000 l    d  .rodata.cst8	00000000 .rodata.cst8
00000000 l    d  .note.GNU-stack	00000000 .note.GNU-stack
00000000 l    d  .comment	00000000 .comment
00000150 g     F .text	0000008b BitVector_Error
000001e0 g     F .text	00000169 BitVector_Boot
00000000         *UND*	00000000 malloc
00000350 g     F .text	00000020 BitVector_Size
00000370 g     F .text	0000001b BitVector_Mask
00000390 g     F .text	0000000a BitVector_Version
000003a0 g     F .text	0000000a BitVector_Word_Bits
000003b0 g     F .text	0000000a BitVector_Long_Bits
000003c0 g     F .text	00000012 BitVector_Dispose
00000000         *UND*	00000000 free
000003e0 g     F .text	00000018 BitVector_Destroy
00000400 g     F .text	00000050 BitVector_Destroy_List
00000450 g     F .text	0000006d BitVector_Create
000004c0 g     F .text	0000008f BitVector_Create_List
00000550 g     F .text	000000f6 BitVector_Resize
00000650 g     F .text	00000016 BitVector_Shadow
00000670 g     F .text	00000040 BitVector_Clone
000006b0 g     F .text	0000054b BitVector_Interval_Copy
00000c00 g     F .text	00000078 BitVector_Concat
00000c80 g     F .text	000000e6 BitVector_Copy
00000d70 g     F .text	00000020 BitVector_Empty
00000d90 g     F .text	0000002c BitVector_Fill
00000dc0 g     F .text	00000029 BitVector_Flip
00000df0 g     F .text	000000f8 BitVector_Primes
00000ef0 g     F .text	000000dc BitVector_Interval_Reverse
00000fd0 g     F .text	000000b9 BitVector_Reverse
00001090 g     F .text	000000e2 BitVector_Interval_Empty
00001180 g     F .text	000000dc BitVector_Interval_Fill
00001260 g     F .text	000000d9 BitVector_Interval_Flip
00001340 g     F .text	00000158 BitVector_interval_scan_inc
000014a0 g     F .text	0000013e BitVector_interval_scan_dec
000015e0 g     F .text	00000073 BitVector_Delete
00001660 g     F .text	00000069 BitVector_Insert
000016d0 g     F .text	00000232 BitVector_Interval_Substitute
00001910 g     F .text	00000043 BitVector_is_empty
00001960 g     F .text	00000056 BitVector_is_full
000019c0 g     F .text	0000005e BitVector_equal
00001a20 g     F .text	00000067 BitVector_Lexicompare
00001a90 g     F .text	00000095 BitVector_Compare
00001b30 g     F .text	000000d2 BitVector_Hash
00001c10 g     F .text	000000f5 BitVector_to_Hex
00001d10 g     F .text	0000011c BitVector_from_Hex
00000000         *UND*	00000000 strlen
00000000         *UND*	00000000 toupper
00000000         *UND*	00000000 isxdigit
00001e30 g     F .text	000000a7 BitVector_to_Bin
00001ee0 g     F .text	00000127 BitVector_from_Bin
00002010 g     F .text	00000055 BitVector_Sign
00002070 g     F .text	0000004f BitVector_Negate
000020c0 g     F .text	00000291 BitVector_compute
00002360 g     F .text	00000177 BitVector_to_Enum
000024e0 g     F .text	000002ad BitVector_from_Enum
00002790 g     F .text	00000038 BitVector_Bit_Off
000027d0 g     F .text	00000035 BitVector_Bit_On
00002810 g     F .text	00000047 BitVector_bit_flip
00002860 g     F .text	0000003a BitVector_bit_test
000028a0 g     F .text	00000065 BitVector_Bit_Copy
00002910 g     F .text	00000031 BitVector_LSB
00002950 g     F .text	00000044 BitVector_MSB
000029a0 g     F .text	00000020 BitVector_lsb_
000029c0 g     F .text	0000002c BitVector_msb_
000029f0 g     F .text	000000b1 BitVector_rotate_left
00002ab0 g     F .text	000000b6 BitVector_rotate_right
00002b70 g     F .text	000000b1 BitVector_shift_left
00002c30 g     F .text	000000a5 BitVector_shift_right
00002ce0 g     F .text	000000a0 BitVector_Word_Insert
00002d80 g     F .text	00000067 BitVector_Move_Left
00002df0 g     F .text	000000ab BitVector_Word_Delete
00002ea0 g     F .text	00000067 BitVector_Move_Right
00002f10 g     F .text	00000050 BitVector_increment
00002f60 g     F .text	0000005b BitVector_decrement
00002fc0 g     F .text	00000021 BitVector_add
00002ff0 g     F .text	00000021 BitVector_sub
00003020 g     F .text	00000026 BitVector_inc
00003050 g     F .text	00000026 BitVector_dec
00003080 g     F .text	00000044 BitVector_Absolute
000030d0 g     F .text	0000004f Set_Max
00003120 g     F .text	000001d8 BitVector_Div_Pos
00003300 g     F .text	0000032f BitVector_to_Dec
00003630 g     F .text	00000167 BitVector_Mul_Pos
000037a0 g     F .text	000003b3 BitVector_from_Dec
00003b60 g     F .text	00000281 BitVector_Multiply
00003df0 g     F .text	000001cf BitVector_Divide
00003fc0 g     F .text	00000278 BitVector_GCD
00004240 g     F .text	00000484 BitVector_GCD2
000046d0 g     F .text	00000199 BitVector_Power
00004870 g     F .text	000000a8 BitVector_Block_Store
00004920 g     F .text	0000008d BitVector_Block_Read
000049b0 g     F .text	0000003a BitVector_Word_Store
000049f0 g     F .text	00000027 BitVector_Word_Read
00004a20 g     F .text	00000107 BitVector_Chunk_Store
00004b30 g     F .text	000000ff BitVector_Chunk_Read
00004c30 g     F .text	0000005c Set_Union
00004c90 g     F .text	0000005c Set_Intersection
00004cf0 g     F .text	0000005f Set_Difference
00004d50 g     F .text	0000005c Set_ExclusiveOr
00004db0 g     F .text	00000044 Set_Complement
00004e00 g     F .text	0000004d Set_subset
00004e50 g     F .text	00000035 Set_Norm
00004e90 g     F .text	0000009f Set_Norm2
00004f30 g     F .text	00000034 Set_Norm3
00004f70 g     F .text	0000004f Set_Min
00004fc0 g     F .text	00000197 Matrix_Multiplication
00005160 g     F .text	00000197 Matrix_Product
00005300 g     F .text	00000158 Matrix_Closure
00005460 g     F .text	00000280 Matrix_Transpose



c_interface.o:     file format elf32-i386

SYMBOL TABLE:
00000000 l    df *ABS*	00000000 c_interface.cpp
00000000 l    d  .text	00000000 .text
00000000 l    d  .data	00000000 .data
00000000 l    d  .bss	00000000 .bss
00000000 l    d  .ctors	00000000 .ctors
00000340 l     F .text	00000010 _GLOBAL__I_decls
00000008 l     O .bss	00000004 _ZN7MINISAT9lit_ErrorE
0000000c l     O .bss	00000004 _ZN7MINISAT9lit_UndefE
00000010 l     O .bss	00000004 _ZN7MINISAT7l_UndefE
00000014 l     O .bss	00000004 _ZN7MINISAT7l_FalseE
00000018 l     O .bss	00000004 _ZN7MINISAT6l_TrueE
0000001c l     O .bss	00000001 _ZSt8__ioinit
00000000 l    d  .gnu.linkonce.r._ZTCSt9fdostream0_So	00000000 .gnu.linkonce.r._ZTCSt9fdostream0_So
00000000 l    d  .gnu.linkonce.r._ZTVSt9fdostream	00000000 .gnu.linkonce.r._ZTVSt9fdostream
00000000 l    d  .gnu.linkonce.r._ZTISt9fdostream	00000000 .gnu.linkonce.r._ZTISt9fdostream
00000000 l    d  .gnu.linkonce.r._ZTSSt9fdostream	00000000 .gnu.linkonce.r._ZTSSt9fdostream
00000000 l    d  .gnu.linkonce.r._ZTTSt9fdostream	00000000 .gnu.linkonce.r._ZTTSt9fdostream
00000000 l    d  .gnu.linkonce.r._ZTVSt8fdoutbuf	00000000 .gnu.linkonce.r._ZTVSt8fdoutbuf
00000000 l    d  .gnu.linkonce.r._ZTISt8fdoutbuf	00000000 .gnu.linkonce.r._ZTISt8fdoutbuf
00000000 l    d  .gnu.linkonce.r._ZTSSt8fdoutbuf	00000000 .gnu.linkonce.r._ZTSSt8fdoutbuf
00000000 l    d  .rodata	00000000 .rodata
00000000 l     O .rodata	00000070 _ZN9__gnu_cxx16__stl_prime_listE
00000000 l    d  .gnu.linkonce.t._ZNSt8fdoutbuf8overflowEi	00000000 .gnu.linkonce.t._ZNSt8fdoutbuf8overflowEi
00000000 l    d  .gnu.linkonce.t._ZNSt8fdoutbuf6xsputnEPKci	00000000 .gnu.linkonce.t._ZNSt8fdoutbuf6xsputnEPKci
00000000 l    d  .gnu.linkonce.t._ZN4BEEV7ASTNodeD1Ev	00000000 .gnu.linkonce.t._ZN4BEEV7ASTNodeD1Ev
00000000 l    d  .rodata.str1.1	00000000 .rodata.str1.1
00000000 l    d  .gnu.linkonce.t._ZN9__gnu_cxx13new_allocatorISt4pairIN4BEEV7ASTNodeES3_EEC2Ev	00000000 .gnu.linkonce.t._ZN9__gnu_cxx13new_allocatorISt4pairIN4BEEV7ASTNodeES3_EEC2Ev
00000000 l    d  .gnu.linkonce.t._ZSt8_DestroyIPPSt6vectorIN4BEEV7ASTNodeESaIS2_EESaIS5_EEvT_S8_T0_	00000000 .gnu.linkonce.t._ZSt8_DestroyIPPSt6vectorIN4BEEV7ASTNodeESaIS2_EESaIS5_EEvT_S8_T0_
00000000 l    d  .gnu.linkonce.t._ZSt8_DestroyIPPN9__gnu_cxx15_Hashtable_nodeISt4pairIKN4BEEV7ASTNodeES4_EEESaIS8_EEvT_SB_T0_	00000000 .gnu.linkonce.t._ZSt8_DestroyIPPN9__gnu_cxx15_Hashtable_nodeISt4pairIKN4BEEV7ASTNodeES4_EEESaIS8_EEvT_SB_T0_
00000000 l    d  .gnu.linkonce.t._ZSt8_DestroyIPPN9__gnu_cxx15_Hashtable_nodeIPN4BEEV11ASTInteriorEEESaIS6_EEvT_S9_T0_	00000000 .gnu.linkonce.t._ZSt8_DestroyIPPN9__gnu_cxx15_Hashtable_nodeIPN4BEEV11ASTInteriorEEESaIS6_EEvT_S9_T0_
00000000 l    d  .gnu.linkonce.t._ZSt8_DestroyIPPN9__gnu_cxx15_Hashtable_nodeIPN4BEEV9ASTSymbolEEESaIS6_EEvT_S9_T0_	00000000 .gnu.linkonce.t._ZSt8_DestroyIPPN9__gnu_cxx15_Hashtable_nodeIPN4BEEV9ASTSymbolEEESaIS6_EEvT_S9_T0_
00000000 l    d  .gnu.linkonce.t._ZSt8_DestroyIPPN9__gnu_cxx15_Hashtable_nodeIPN4BEEV10ASTBVConstEEESaIS6_EEvT_S9_T0_	00000000 .gnu.linkonce.t._ZSt8_DestroyIPPN9__gnu_cxx15_Hashtable_nodeIPN4BEEV10ASTBVConstEEESaIS6_EEvT_S9_T0_
00000000 l    d  .gnu.linkonce.t._ZSt8_DestroyIPPN9__gnu_cxx15_Hashtable_nodeIN4BEEV7ASTNodeEEESaIS5_EEvT_S8_T0_	00000000 .gnu.linkonce.t._ZSt8_DestroyIPPN9__gnu_cxx15_Hashtable_nodeIN4BEEV7ASTNodeEEESaIS5_EEvT_S8_T0_
00000000 l    d  .gnu.linkonce.t._ZSt8_DestroyIPPN9__gnu_cxx15_Hashtable_nodeISt4pairIKN4BEEV7ASTNodeEiEEESaIS8_EEvT_SB_T0_	00000000 .gnu.linkonce.t._ZSt8_DestroyIPPN9__gnu_cxx15_Hashtable_nodeISt4pairIKN4BEEV7ASTNodeEiEEESaIS8_EEvT_SB_T0_
00000000 l    d  .gnu.linkonce.t._ZSt8_DestroyIPPN9__gnu_cxx15_Hashtable_nodeISt4pairIKN4BEEV7ASTNodeESt6vectorIS4_SaIS4_EEEEESaISB_EEvT_SE_T0_	00000000 .gnu.linkonce.t._ZSt8_DestroyIPPN9__gnu_cxx15_Hashtable_nodeISt4pairIKN4BEEV7ASTNodeESt6vectorIS4_SaIS4_EEEEESaISB_EEvT_SE_T0_
00000000 l    d  .gnu.linkonce.t._ZSt8_DestroyIPPN9__gnu_cxx15_Hashtable_nodeISt4pairIKN4BEEV7ASTNodeEPNS0_8hash_mapIjbNS0_4hashIjEESt8equal_toIjESaIbEEEEEESaISG_EEvT_SJ_T0_	00000000 .gnu.linkonce.t._ZSt8_DestroyIPPN9__gnu_cxx15_Hashtable_nodeISt4pairIKN4BEEV7ASTNodeEPNS0_8hash_mapIjbNS0_4hashIjEESt8equal_toIjESaIbEEEEEESaISG_EEvT_SJ_T0_
00000000 l    d  .gnu.linkonce.t._ZSt6fill_nIPPN9__gnu_cxx15_Hashtable_nodeISt4pairIKN4BEEV7ASTNodeES4_EEEjS8_ET_SA_T0_RKT1_	00000000 .gnu.linkonce.t._ZSt6fill_nIPPN9__gnu_cxx15_Hashtable_nodeISt4pairIKN4BEEV7ASTNodeES4_EEEjS8_ET_SA_T0_RKT1_
00000000 l    d  .gnu.linkonce.t._ZSt24__uninitialized_fill_n_aIPPN9__gnu_cxx15_Hashtable_nodeISt4pairIKN4BEEV7ASTNodeES4_EEEjS8_S8_EvT_T0_RKT1_SaIT2_E	00000000 .gnu.linkonce.t._ZSt24__uninitialized_fill_n_aIPPN9__gnu_cxx15_Hashtable_nodeISt4pairIKN4BEEV7ASTNodeES4_EEEjS8_S8_EvT_T0_RKT1_SaIT2_E
00000000 l    d  .gnu.linkonce.t._ZSt6fill_nIPPN9__gnu_cxx15_Hashtable_nodeIPN4BEEV11ASTInteriorEEEjS6_ET_S8_T0_RKT1_	00000000 .gnu.linkonce.t._ZSt6fill_nIPPN9__gnu_cxx15_Hashtable_nodeIPN4BEEV11ASTInteriorEEEjS6_ET_S8_T0_RKT1_
00000000 l    d  .gnu.linkonce.t._ZSt24__uninitialized_fill_n_aIPPN9__gnu_cxx15_Hashtable_nodeIPN4BEEV11ASTInteriorEEEjS6_S6_EvT_T0_RKT1_SaIT2_E	00000000 .gnu.linkonce.t._ZSt24__uninitialized_fill_n_aIPPN9__gnu_cxx15_Hashtable_nodeIPN4BEEV11ASTInteriorEEEjS6_S6_EvT_T0_RKT1_SaIT2_E
00000000 l    d  .gnu.linkonce.t._ZSt6fill_nIPPN9__gnu_cxx15_Hashtable_nodeIPN4BEEV9ASTSymbolEEEjS6_ET_S8_T0_RKT1_	00000000 .gnu.linkonce.t._ZSt6fill_nIPPN9__gnu_cxx15_Hashtable_nodeIPN4BEEV9ASTSymbolEEEjS6_ET_S8_T0_RKT1_
00000000 l    d  .gnu.linkonce.t._ZSt24__uninitialized_fill_n_aIPPN9__gnu_cxx15_Hashtable_nodeIPN4BEEV9ASTSymbolEEEjS6_S6_EvT_T0_RKT1_SaIT2_E	00000000 .gnu.linkonce.t._ZSt24__uninitialized_fill_n_aIPPN9__gnu_cxx15_Hashtable_nodeIPN4BEEV9ASTSymbolEEEjS6_S6_EvT_T0_RKT1_SaIT2_E
00000000 l    d  .gnu.linkonce.t._ZSt6fill_nIPPN9__gnu_cxx15_Hashtable_nodeIPN4BEEV10ASTBVConstEEEjS6_ET_S8_T0_RKT1_	00000000 .gnu.linkonce.t._ZSt6fill_nIPPN9__gnu_cxx15_Hashtable_nodeIPN4BEEV10ASTBVConstEEEjS6_ET_S8_T0_RKT1_
00000000 l    d  .gnu.linkonce.t._ZSt24__uninitialized_fill_n_aIPPN9__gnu_cxx15_Hashtable_nodeIPN4BEEV10ASTBVConstEEEjS6_S6_EvT_T0_RKT1_SaIT2_E	00000000 .gnu.linkonce.t._ZSt24__uninitialized_fill_n_aIPPN9__gnu_cxx15_Hashtable_nodeIPN4BEEV10ASTBVConstEEEjS6_S6_EvT_T0_RKT1_SaIT2_E
00000000 l    d  .gnu.linkonce.t._ZSt6fill_nIPPN9__gnu_cxx15_Hashtable_nodeIN4BEEV7ASTNodeEEEjS5_ET_S7_T0_RKT1_	00000000 .gnu.linkonce.t._ZSt6fill_nIPPN9__gnu_cxx15_Hashtable_nodeIN4BEEV7ASTNodeEEEjS5_ET_S7_T0_RKT1_
00000000 l    d  .gnu.linkonce.t._ZSt24__uninitialized_fill_n_aIPPN9__gnu_cxx15_Hashtable_nodeIN4BEEV7ASTNodeEEEjS5_S5_EvT_T0_RKT1_SaIT2_E	00000000 .gnu.linkonce.t._ZSt24__uninitialized_fill_n_aIPPN9__gnu_cxx15_Hashtable_nodeIN4BEEV7ASTNodeEEEjS5_S5_EvT_T0_RKT1_SaIT2_E
00000000 l    d  .gnu.linkonce.t._ZSt6fill_nIPPN9__gnu_cxx15_Hashtable_nodeISt4pairIKN4BEEV7ASTNodeEiEEEjS8_ET_SA_T0_RKT1_	00000000 .gnu.linkonce.t._ZSt6fill_nIPPN9__gnu_cxx15_Hashtable_nodeISt4pairIKN4BEEV7ASTNodeEiEEEjS8_ET_SA_T0_RKT1_
00000000 l    d  .gnu.linkonce.t._ZSt24__uninitialized_fill_n_aIPPN9__gnu_cxx15_Hashtable_nodeISt4pairIKN4BEEV7ASTNodeEiEEEjS8_S8_EvT_T0_RKT1_SaIT2_E	00000000 .gnu.linkonce.t._ZSt24__uninitialized_fill_n_aIPPN9__gnu_cxx15_Hashtable_nodeISt4pairIKN4BEEV7ASTNodeEiEEEjS8_S8_EvT_T0_RKT1_SaIT2_E
00000000 l    d  .gnu.linkonce.t._ZSt6fill_nIPPN9__gnu_cxx15_Hashtable_nodeISt4pairIKN4BEEV7ASTNodeESt6vectorIS4_SaIS4_EEEEEjSB_ET_SD_T0_RKT1_	00000000 .gnu.linkonce.t._ZSt6fill_nIPPN9__gnu_cxx15_Hashtable_nodeISt4pairIKN4BEEV7ASTNodeESt6vectorIS4_SaIS4_EEEEEjSB_ET_SD_T0_RKT1_
00000000 l    d  .gnu.linkonce.t._ZSt24__uninitialized_fill_n_aIPPN9__gnu_cxx15_Hashtable_nodeISt4pairIKN4BEEV7ASTNodeESt6vectorIS4_SaIS4_EEEEEjSB_SB_EvT_T0_RKT1_SaIT2_E	00000000 .gnu.linkonce.t._ZSt24__uninitialized_fill_n_aIPPN9__gnu_cxx15_Hashtable_nodeISt4pairIKN4BEEV7ASTNodeESt6vectorIS4_SaIS4_EEEEEjSB_SB_EvT_T0_RKT1_SaIT2_E
00000000 l    d  .gnu.linkonce.t._ZSt6fill_nIPPN9__gnu_cxx15_Hashtable_nodeISt4pairIKN4BEEV7ASTNodeEPNS0_8hash_mapIjbNS0_4hashIjEESt8equal_toIjESaIbEEEEEEjSG_ET_SI_T0_RKT1_	00000000 .gnu.linkonce.t._ZSt6fill_nIPPN9__gnu_cxx15_Hashtable_nodeISt4pairIKN4BEEV7ASTNodeEPNS0_8hash_mapIjbNS0_4hashIjEESt8equal_toIjESaIbEEEEEEjSG_ET_SI_T0_RKT1_
00000000 l    d  .gnu.linkonce.t._ZSt24__uninitialized_fill_n_aIPPN9__gnu_cxx15_Hashtable_nodeISt4pairIKN4BEEV7ASTNodeEPNS0_8hash_mapIjbNS0_4hashIjEESt8equal_toIjESaIbEEEEEEjSG_SG_EvT_T0_RKT1_SaIT2_E	00000000 .gnu.linkonce.t._ZSt24__uninitialized_fill_n_aIPPN9__gnu_cxx15_Hashtable_nodeISt4pairIKN4BEEV7ASTNodeEPNS0_8hash_mapIjbNS0_4hashIjEESt8equal_toIjESaIbEEEEEEjSG_SG_EvT_T0_RKT1_SaIT2_E
00000110 l     F .text	00000010 __tcf_0
00000000 l    d  .gnu.linkonce.t._ZSt4fillIN9__gnu_cxx17__normal_iteratorIPPNS0_15_Hashtable_nodeIPN4BEEV11ASTInteriorEEESt6vectorIS7_SaIS7_EEEES7_EvT_SD_RKT0_	00000000 .gnu.linkonce.t._ZSt4fillIN9__gnu_cxx17__normal_iteratorIPPNS0_15_Hashtable_nodeIPN4BEEV11ASTInteriorEEESt6vectorIS7_SaIS7_EEEES7_EvT_SD_RKT0_
00000000 l    d  .gnu.linkonce.t._ZSt4fillIN9__gnu_cxx17__normal_iteratorIPPNS0_15_Hashtable_nodeIPN4BEEV9ASTSymbolEEESt6vectorIS7_SaIS7_EEEES7_EvT_SD_RKT0_	00000000 .gnu.linkonce.t._ZSt4fillIN9__gnu_cxx17__normal_iteratorIPPNS0_15_Hashtable_nodeIPN4BEEV9ASTSymbolEEESt6vectorIS7_SaIS7_EEEES7_EvT_SD_RKT0_
00000000 l    d  .gnu.linkonce.t._ZSt4fillIN9__gnu_cxx17__normal_iteratorIPPNS0_15_Hashtable_nodeISt4pairIKN4BEEV7ASTNodeESt6vectorIS5_SaIS5_EEEEES7_ISC_SaISC_EEEESC_EvT_SH_RKT0_	00000000 .gnu.linkonce.t._ZSt4fillIN9__gnu_cxx17__normal_iteratorIPPNS0_15_Hashtable_nodeISt4pairIKN4BEEV7ASTNodeESt6vectorIS5_SaIS5_EEEEES7_ISC_SaISC_EEEESC_EvT_SH_RKT0_
00000000 l    d  .gnu.linkonce.t._ZSt4fillIN9__gnu_cxx17__normal_iteratorIPPNS0_15_Hashtable_nodeIN4BEEV7ASTNodeEEESt6vectorIS6_SaIS6_EEEES6_EvT_SC_RKT0_	00000000 .gnu.linkonce.t._ZSt4fillIN9__gnu_cxx17__normal_iteratorIPPNS0_15_Hashtable_nodeIN4BEEV7ASTNodeEEESt6vectorIS6_SaIS6_EEEES6_EvT_SC_RKT0_
00000000 l    d  .gnu.linkonce.t._ZSt4fillIN9__gnu_cxx17__normal_iteratorIPPNS0_15_Hashtable_nodeISt4pairIKN4BEEV7ASTNodeEPNS0_8hash_mapIjbNS0_4hashIjEESt8equal_toIjESaIbEEEEEESt6vectorISH_SaISH_EEEESH_EvT_SN_RKT0_	00000000 .gnu.linkonce.t._ZSt4fillIN9__gnu_cxx17__normal_iteratorIPPNS0_15_Hashtable_nodeISt4pairIKN4BEEV7ASTNodeEPNS0_8hash_mapIjbNS0_4hashIjEESt8equal_toIjESaIbEEEEEESt6vectorISH_SaISH_EEEESH_EvT_SN_RKT0_
00000000 l    d  .gnu.linkonce.t._ZSt4fillIN9__gnu_cxx17__normal_iteratorIPPNS0_15_Hashtable_nodeIPN4BEEV10ASTBVConstEEESt6vectorIS7_SaIS7_EEEES7_EvT_SD_RKT0_	00000000 .gnu.linkonce.t._ZSt4fillIN9__gnu_cxx17__normal_iteratorIPPNS0_15_Hashtable_nodeIPN4BEEV10ASTBVConstEEESt6vectorIS7_SaIS7_EEEES7_EvT_SD_RKT0_
00000000 l    d  .gnu.linkonce.t._ZSt4fillIN9__gnu_cxx17__normal_iteratorIPPNS0_15_Hashtable_nodeISt4pairIKN4BEEV7ASTNodeEiEEESt6vectorIS9_SaIS9_EEEES9_EvT_SF_RKT0_	00000000 .gnu.linkonce.t._ZSt4fillIN9__gnu_cxx17__normal_iteratorIPPNS0_15_Hashtable_nodeISt4pairIKN4BEEV7ASTNodeEiEEESt6vectorIS9_SaIS9_EEEES9_EvT_SF_RKT0_
00000000 l    d  .gnu.linkonce.t._ZSt6fill_nIN9__gnu_cxx17__normal_iteratorIPPNS0_15_Hashtable_nodeISt4pairIKN4BEEV7ASTNodeES5_EEESt6vectorIS9_SaIS9_EEEEjS9_ET_SF_T0_RKT1_	00000000 .gnu.linkonce.t._ZSt6fill_nIN9__gnu_cxx17__normal_iteratorIPPNS0_15_Hashtable_nodeISt4pairIKN4BEEV7ASTNodeES5_EEESt6vectorIS9_SaIS9_EEEEjS9_ET_SF_T0_RKT1_
00000000 l    d  .gnu.linkonce.t._ZSt24__uninitialized_fill_n_aIN9__gnu_cxx17__normal_iteratorIPPNS0_15_Hashtable_nodeISt4pairIKN4BEEV7ASTNodeES5_EEESt6vectorIS9_SaIS9_EEEEjS9_S9_EvT_T0_RKT1_SaIT2_E	00000000 .gnu.linkonce.t._ZSt24__uninitialized_fill_n_aIN9__gnu_cxx17__normal_iteratorIPPNS0_15_Hashtable_nodeISt4pairIKN4BEEV7ASTNodeES5_EEESt6vectorIS9_SaIS9_EEEEjS9_S9_EvT_T0_RKT1_SaIT2_E
00000000 l    d  .gnu.linkonce.t._ZSt6fill_nIN9__gnu_cxx17__normal_iteratorIPPNS0_15_Hashtable_nodeIPN4BEEV11ASTInteriorEEESt6vectorIS7_SaIS7_EEEEjS7_ET_SD_T0_RKT1_	00000000 .gnu.linkonce.t._ZSt6fill_nIN9__gnu_cxx17__normal_iteratorIPPNS0_15_Hashtable_nodeIPN4BEEV11ASTInteriorEEESt6vectorIS7_SaIS7_EEEEjS7_ET_SD_T0_RKT1_
00000000 l    d  .gnu.linkonce.t._ZSt24__uninitialized_fill_n_aIN9__gnu_cxx17__normal_iteratorIPPNS0_15_Hashtable_nodeIPN4BEEV11ASTInteriorEEESt6vectorIS7_SaIS7_EEEEjS7_S7_EvT_T0_RKT1_SaIT2_E	00000000 .gnu.linkonce.t._ZSt24__uninitialized_fill_n_aIN9__gnu_cxx17__normal_iteratorIPPNS0_15_Hashtable_nodeIPN4BEEV11ASTInteriorEEESt6vectorIS7_SaIS7_EEEEjS7_S7_EvT_T0_RKT1_SaIT2_E
00000000 l    d  .gnu.linkonce.t._ZSt6fill_nIN9__gnu_cxx17__normal_iteratorIPPNS0_15_Hashtable_nodeIPN4BEEV9ASTSymbolEEESt6vectorIS7_SaIS7_EEEEjS7_ET_SD_T0_RKT1_	00000000 .gnu.linkonce.t._ZSt6fill_nIN9__gnu_cxx17__normal_iteratorIPPNS0_15_Hashtable_nodeIPN4BEEV9ASTSymbolEEESt6vectorIS7_SaIS7_EEEEjS7_ET_SD_T0_RKT1_
00000000 l    d  .gnu.linkonce.t._ZSt24__uninitialized_fill_n_aIN9__gnu_cxx17__normal_iteratorIPPNS0_15_Hashtable_nodeIPN4BEEV9ASTSymbolEEESt6vectorIS7_SaIS7_EEEEjS7_S7_EvT_T0_RKT1_SaIT2_E	00000000 .gnu.linkonce.t._ZSt24__uninitialized_fill_n_aIN9__gnu_cxx17__normal_iteratorIPPNS0_15_Hashtable_nodeIPN4BEEV9ASTSymbolEEESt6vectorIS7_SaIS7_EEEEjS7_S7_EvT_T0_RKT1_SaIT2_E
00000000 l    d  .gnu.linkonce.t._ZSt6fill_nIN9__gnu_cxx17__normal_iteratorIPPNS0_15_Hashtable_nodeIPN4BEEV10ASTBVConstEEESt6vectorIS7_SaIS7_EEEEjS7_ET_SD_T0_RKT1_	00000000 .gnu.linkonce.t._ZSt6fill_nIN9__gnu_cxx17__normal_iteratorIPPNS0_15_Hashtable_nodeIPN4BEEV10ASTBVConstEEESt6vectorIS7_SaIS7_EEEEjS7_ET_SD_T0_RKT1_
00000000 l    d  .gnu.linkonce.t._ZSt24__uninitialized_fill_n_aIN9__gnu_cxx17__normal_iteratorIPPNS0_15_Hashtable_nodeIPN4BEEV10ASTBVConstEEESt6vectorIS7_SaIS7_EEEEjS7_S7_EvT_T0_RKT1_SaIT2_E	00000000 .gnu.linkonce.t._ZSt24__uninitialized_fill_n_aIN9__gnu_cxx17__normal_iteratorIPPNS0_15_Hashtable_nodeIPN4BEEV10ASTBVConstEEESt6vectorIS7_SaIS7_EEEEjS7_S7_EvT_T0_RKT1_SaIT2_E
00000000 l    d  .gnu.linkonce.t._ZSt6fill_nIN9__gnu_cxx17__normal_iteratorIPPNS0_15_Hashtable_nodeIN4BEEV7ASTNodeEEESt6vectorIS6_SaIS6_EEEEjS6_ET_SC_T0_RKT1_	00000000 .gnu.linkonce.t._ZSt6fill_nIN9__gnu_cxx17__normal_iteratorIPPNS0_15_Hashtable_nodeIN4BEEV7ASTNodeEEESt6vectorIS6_SaIS6_EEEEjS6_ET_SC_T0_RKT1_
00000000 l    d  .gnu.linkonce.t._ZSt24__uninitialized_fill_n_aIN9__gnu_cxx17__normal_iteratorIPPNS0_15_Hashtable_nodeIN4BEEV7ASTNodeEEESt6vectorIS6_SaIS6_EEEEjS6_S6_EvT_T0_RKT1_SaIT2_E	00000000 .gnu.linkonce.t._ZSt24__uninitialized_fill_n_aIN9__gnu_cxx17__normal_iteratorIPPNS0_15_Hashtable_nodeIN4BEEV7ASTNodeEEESt6vectorIS6_SaIS6_EEEEjS6_S6_EvT_T0_RKT1_SaIT2_E
00000000 l    d  .gnu.linkonce.t._ZSt6fill_nIN9__gnu_cxx17__normal_iteratorIPPNS0_15_Hashtable_nodeISt4pairIKN4BEEV7ASTNodeEiEEESt6vectorIS9_SaIS9_EEEEjS9_ET_SF_T0_RKT1_	00000000 .gnu.linkonce.t._ZSt6fill_nIN9__gnu_cxx17__normal_iteratorIPPNS0_15_Hashtable_nodeISt4pairIKN4BEEV7ASTNodeEiEEESt6vectorIS9_SaIS9_EEEEjS9_ET_SF_T0_RKT1_
00000000 l    d  .gnu.linkonce.t._ZSt24__uninitialized_fill_n_aIN9__gnu_cxx17__normal_iteratorIPPNS0_15_Hashtable_nodeISt4pairIKN4BEEV7ASTNodeEiEEESt6vectorIS9_SaIS9_EEEEjS9_S9_EvT_T0_RKT1_SaIT2_E	00000000 .gnu.linkonce.t._ZSt24__uninitialized_fill_n_aIN9__gnu_cxx17__normal_iteratorIPPNS0_15_Hashtable_nodeISt4pairIKN4BEEV7ASTNodeEiEEESt6vectorIS9_SaIS9_EEEEjS9_S9_EvT_T0_RKT1_SaIT2_E
00000000 l    d  .gnu.linkonce.t._ZSt6fill_nIN9__gnu_cxx17__normal_iteratorIPPNS0_15_Hashtable_nodeISt4pairIKN4BEEV7ASTNodeESt6vectorIS5_SaIS5_EEEEES7_ISC_SaISC_EEEEjSC_ET_SH_T0_RKT1_	00000000 .gnu.linkonce.t._ZSt6fill_nIN9__gnu_cxx17__normal_iteratorIPPNS0_15_Hashtable_nodeISt4pairIKN4BEEV7ASTNodeESt6vectorIS5_SaIS5_EEEEES7_ISC_SaISC_EEEEjSC_ET_SH_T0_RKT1_
00000000 l    d  .gnu.linkonce.t._ZSt24__uninitialized_fill_n_aIN9__gnu_cxx17__normal_iteratorIPPNS0_15_Hashtable_nodeISt4pairIKN4BEEV7ASTNodeESt6vectorIS5_SaIS5_EEEEES7_ISC_SaISC_EEEEjSC_SC_EvT_T0_RKT1_SaIT2_E	00000000 .gnu.linkonce.t._ZSt24__uninitialized_fill_n_aIN9__gnu_cxx17__normal_iteratorIPPNS0_15_Hashtable_nodeISt4pairIKN4BEEV7ASTNodeESt6vectorIS5_SaIS5_EEEEES7_ISC_SaISC_EEEEjSC_SC_EvT_T0_RKT1_SaIT2_E
00000000 l    d  .gnu.linkonce.t._ZSt6fill_nIN9__gnu_cxx17__normal_iteratorIPPNS0_15_Hashtable_nodeISt4pairIKN4BEEV7ASTNodeEPNS0_8hash_mapIjbNS0_4hashIjEESt8equal_toIjESaIbEEEEEESt6vectorISH_SaISH_EEEEjSH_ET_SN_T0_RKT1_	00000000 .gnu.linkonce.t._ZSt6fill_nIN9__gnu_cxx17__normal_iteratorIPPNS0_15_Hashtable_nodeISt4pairIKN4BEEV7ASTNodeEPNS0_8hash_mapIjbNS0_4hashIjEESt8equal_toIjESaIbEEEEEESt6vectorISH_SaISH_EEEEjSH_ET_SN_T0_RKT1_
00000000 l    d  .gnu.linkonce.t._ZSt24__uninitialized_fill_n_aIN9__gnu_cxx17__normal_iteratorIPPNS0_15_Hashtable_nodeISt4pairIKN4BEEV7ASTNodeEPNS0_8hash_mapIjbNS0_4hashIjEESt8equal_toIjESaIbEEEEEESt6vectorISH_SaISH_EEEEjSH_SH_EvT_T0_RKT1_SaIT2_E	00000000 .gnu.linkonce.t._ZSt24__uninitialized_fill_n_aIN9__gnu_cxx17__normal_iteratorIPPNS0_15_Hashtable_nodeISt4pairIKN4BEEV7ASTNodeEPNS0_8hash_mapIjbNS0_4hashIjEESt8equal_toIjESaIbEEEEEESt6vectorISH_SaISH_EEEEjSH_SH_EvT_T0_RKT1_SaIT2_E
00000000 l    d  .gnu.linkonce.t._ZSt8_DestroyIN9__gnu_cxx17__normal_iteratorIPPNS0_15_Hashtable_nodeISt4pairIKN4BEEV7ASTNodeES5_EEESt6vectorIS9_SaIS9_EEEESC_EvT_SF_T0_	00000000 .gnu.linkonce.t._ZSt8_DestroyIN9__gnu_cxx17__normal_iteratorIPPNS0_15_Hashtable_nodeISt4pairIKN4BEEV7ASTNodeES5_EEESt6vectorIS9_SaIS9_EEEESC_EvT_SF_T0_
00000000 l    d  .gnu.linkonce.t._ZSt8_DestroyIN9__gnu_cxx17__normal_iteratorIPPNS0_15_Hashtable_nodeIPN4BEEV9ASTSymbolEEESt6vectorIS7_SaIS7_EEEESA_EvT_SD_T0_	00000000 .gnu.linkonce.t._ZSt8_DestroyIN9__gnu_cxx17__normal_iteratorIPPNS0_15_Hashtable_nodeIPN4BEEV9ASTSymbolEEESt6vectorIS7_SaIS7_EEEESA_EvT_SD_T0_
00000000 l    d  .gnu.linkonce.t._ZSt8_DestroyIN9__gnu_cxx17__normal_iteratorIPPNS0_15_Hashtable_nodeIN4BEEV7ASTNodeEEESt6vectorIS6_SaIS6_EEEES9_EvT_SC_T0_	00000000 .gnu.linkonce.t._ZSt8_DestroyIN9__gnu_cxx17__normal_iteratorIPPNS0_15_Hashtable_nodeIN4BEEV7ASTNodeEEESt6vectorIS6_SaIS6_EEEES9_EvT_SC_T0_
00000000 l    d  .gnu.linkonce.t._ZSt8_DestroyIN9__gnu_cxx17__normal_iteratorIPPNS0_15_Hashtable_nodeIPN4BEEV11ASTInteriorEEESt6vectorIS7_SaIS7_EEEESA_EvT_SD_T0_	00000000 .gnu.linkonce.t._ZSt8_DestroyIN9__gnu_cxx17__normal_iteratorIPPNS0_15_Hashtable_nodeIPN4BEEV11ASTInteriorEEESt6vectorIS7_SaIS7_EEEESA_EvT_SD_T0_
00000000 l    d  .gnu.linkonce.t._ZSt8_DestroyIN9__gnu_cxx17__normal_iteratorIPPNS0_15_Hashtable_nodeISt4pairIKN4BEEV7ASTNodeEPNS0_8hash_mapIjbNS0_4hashIjEESt8equal_toIjESaIbEEEEEESt6vectorISH_SaISH_EEEESK_EvT_SN_T0_	00000000 .gnu.linkonce.t._ZSt8_DestroyIN9__gnu_cxx17__normal_iteratorIPPNS0_15_Hashtable_nodeISt4pairIKN4BEEV7ASTNodeEPNS0_8hash_mapIjbNS0_4hashIjEESt8equal_toIjESaIbEEEEEESt6vectorISH_SaISH_EEEESK_EvT_SN_T0_
00000000 l    d  .gnu.linkonce.t._ZSt8_DestroyIN9__gnu_cxx17__normal_iteratorIPPNS0_15_Hashtable_nodeISt4pairIKN4BEEV7ASTNodeESt6vectorIS5_SaIS5_EEEEES7_ISC_SaISC_EEEESE_EvT_SH_T0_	00000000 .gnu.linkonce.t._ZSt8_DestroyIN9__gnu_cxx17__normal_iteratorIPPNS0_15_Hashtable_nodeISt4pairIKN4BEEV7ASTNodeESt6vectorIS5_SaIS5_EEEEES7_ISC_SaISC_EEEESE_EvT_SH_T0_
00000000 l    d  .gnu.linkonce.t._ZSt8_DestroyIN9__gnu_cxx17__normal_iteratorIPPNS0_15_Hashtable_nodeIPN4BEEV10ASTBVConstEEESt6vectorIS7_SaIS7_EEEESA_EvT_SD_T0_	00000000 .gnu.linkonce.t._ZSt8_DestroyIN9__gnu_cxx17__normal_iteratorIPPNS0_15_Hashtable_nodeIPN4BEEV10ASTBVConstEEESt6vectorIS7_SaIS7_EEEESA_EvT_SD_T0_
00000000 l    d  .gnu.linkonce.t._ZSt8_DestroyIN9__gnu_cxx17__normal_iteratorIPPNS0_15_Hashtable_nodeISt4pairIKN4BEEV7ASTNodeEiEEESt6vectorIS9_SaIS9_EEEESC_EvT_SF_T0_	00000000 .gnu.linkonce.t._ZSt8_DestroyIN9__gnu_cxx17__normal_iteratorIPPNS0_15_Hashtable_nodeISt4pairIKN4BEEV7ASTNodeEiEEESt6vectorIS9_SaIS9_EEEESC_EvT_SF_T0_
00000000 l    d  .gnu.linkonce.t._ZSt4fillIN9__gnu_cxx17__normal_iteratorIPPNS0_15_Hashtable_nodeISt4pairIKN4BEEV7ASTNodeES5_EEESt6vectorIS9_SaIS9_EEEES9_EvT_SF_RKT0_	00000000 .gnu.linkonce.t._ZSt4fillIN9__gnu_cxx17__normal_iteratorIPPNS0_15_Hashtable_nodeISt4pairIKN4BEEV7ASTNodeES5_EEESt6vectorIS9_SaIS9_EEEES9_EvT_SF_RKT0_
00000000 l    d  .rodata.str1.4	00000000 .rodata.str1.4
00000000 l    d  .gcc_except_table	00000000 .gcc_except_table
00000000 l    d  .gnu.linkonce.t._ZSt11lower_boundIPKmmET_S2_S2_RKT0_	00000000 .gnu.linkonce.t._ZSt11lower_boundIPKmmET_S2_S2_RKT0_
00000000 l    d  .gnu.linkonce.t._ZN9__gnu_cxx16__stl_next_primeEm	00000000 .gnu.linkonce.t._ZN9__gnu_cxx16__stl_next_primeEm
00000000 l    d  .gnu.linkonce.t._ZNSaIN4BEEV7ASTNodeEEC1Ev	00000000 .gnu.linkonce.t._ZNSaIN4BEEV7ASTNodeEEC1Ev
00000000 l    d  .gnu.linkonce.t._ZNSaIN4BEEV7ASTNodeEED1Ev	00000000 .gnu.linkonce.t._ZNSaIN4BEEV7ASTNodeEED1Ev
00000000 l    d  .gnu.linkonce.t._ZNSaIPN9__gnu_cxx15_Hashtable_nodeIPN4BEEV9ASTSymbolEEEED1Ev	00000000 .gnu.linkonce.t._ZNSaIPN9__gnu_cxx15_Hashtable_nodeIPN4BEEV9ASTSymbolEEEED1Ev
00000000 l    d  .gnu.linkonce.t._ZNSaIPN9__gnu_cxx15_Hashtable_nodeIPN4BEEV9ASTSymbolEEEED2Ev	00000000 .gnu.linkonce.t._ZNSaIPN9__gnu_cxx15_Hashtable_nodeIPN4BEEV9ASTSymbolEEEED2Ev
00000000 l    d  .gnu.linkonce.t._ZNSaIPN9__gnu_cxx15_Hashtable_nodeIPN4BEEV10ASTBVConstEEEED1Ev	00000000 .gnu.linkonce.t._ZNSaIPN9__gnu_cxx15_Hashtable_nodeIPN4BEEV10ASTBVConstEEEED1Ev
00000000 l    d  .gnu.linkonce.t._ZNSaIPN9__gnu_cxx15_Hashtable_nodeIPN4BEEV10ASTBVConstEEEED2Ev	00000000 .gnu.linkonce.t._ZNSaIPN9__gnu_cxx15_Hashtable_nodeIPN4BEEV10ASTBVConstEEEED2Ev
00000000 l    d  .gnu.linkonce.t._ZNSaIPN9__gnu_cxx15_Hashtable_nodeIPN4BEEV11ASTInteriorEEEED1Ev	00000000 .gnu.linkonce.t._ZNSaIPN9__gnu_cxx15_Hashtable_nodeIPN4BEEV11ASTInteriorEEEED1Ev
00000000 l    d  .gnu.linkonce.t._ZNSaIPN9__gnu_cxx15_Hashtable_nodeIPN4BEEV11ASTInteriorEEEED2Ev	00000000 .gnu.linkonce.t._ZNSaIPN9__gnu_cxx15_Hashtable_nodeIPN4BEEV11ASTInteriorEEEED2Ev
00000000 l    d  .gnu.linkonce.t._ZNSaIPSt6vectorIN4BEEV7ASTNodeESaIS1_EEED1Ev	00000000 .gnu.linkonce.t._ZNSaIPSt6vectorIN4BEEV7ASTNodeESaIS1_EEED1Ev
00000000 l    d  .gnu.linkonce.t._ZNSaIPSt6vectorIN4BEEV7ASTNodeESaIS1_EEED2Ev	00000000 .gnu.linkonce.t._ZNSaIPSt6vectorIN4BEEV7ASTNodeESaIS1_EEED2Ev
00000000 l    d  .gnu.linkonce.t._ZNSaISt4pairIN4BEEV7ASTNodeES1_EED1Ev	00000000 .gnu.linkonce.t._ZNSaISt4pairIN4BEEV7ASTNodeES1_EED1Ev
00000000 l    d  .gnu.linkonce.t._ZNSaISt4pairIN4BEEV7ASTNodeES1_EED2Ev	00000000 .gnu.linkonce.t._ZNSaISt4pairIN4BEEV7ASTNodeES1_EED2Ev
00000000 l    d  .gnu.linkonce.t._ZNSaIPN4BEEV11ASTInteriorEED1Ev	00000000 .gnu.linkonce.t._ZNSaIPN4BEEV11ASTInteriorEED1Ev
00000000 l    d  .gnu.linkonce.t._ZNSaIPN4BEEV9ASTSymbolEED1Ev	00000000 .gnu.linkonce.t._ZNSaIPN4BEEV9ASTSymbolEED1Ev
00000000 l    d  .gnu.linkonce.t._ZNSaIPN4BEEV10ASTBVConstEED1Ev	00000000 .gnu.linkonce.t._ZNSaIPN4BEEV10ASTBVConstEED1Ev
00000000 l    d  .gnu.linkonce.t._ZNSaIN9__gnu_cxx15_Hashtable_nodeIPN4BEEV11ASTInteriorEEEED1Ev	00000000 .gnu.linkonce.t._ZNSaIN9__gnu_cxx15_Hashtable_nodeIPN4BEEV11ASTInteriorEEEED1Ev
00000000 l    d  .gnu.linkonce.t._ZNSaIN9__gnu_cxx15_Hashtable_nodeIPN4BEEV9ASTSymbolEEEED1Ev	00000000 .gnu.linkonce.t._ZNSaIN9__gnu_cxx15_Hashtable_nodeIPN4BEEV9ASTSymbolEEEED1Ev
00000000 l    d  .gnu.linkonce.t._ZNSaIN9__gnu_cxx15_Hashtable_nodeIPN4BEEV10ASTBVConstEEEED1Ev	00000000 .gnu.linkonce.t._ZNSaIN9__gnu_cxx15_Hashtable_nodeIPN4BEEV10ASTBVConstEEEED1Ev
000002d0 l     F .text	00000070 _Z41__static_initialization_and_destruction_0ii
00000000 l    d  .gnu.linkonce.t._ZN4BEEV7ASTNodeaSERKS0_	00000000 .gnu.linkonce.t._ZN4BEEV7ASTNodeaSERKS0_
00000000 l    d  .gnu.linkonce.t._ZNSt12_Vector_baseISt4pairIN4BEEV7ASTNodeES2_ESaIS3_EE12_Vector_implD1Ev	00000000 .gnu.linkonce.t._ZNSt12_Vector_baseISt4pairIN4BEEV7ASTNodeES2_ESaIS3_EE12_Vector_implD1Ev
00000000 l    d  .gnu.linkonce.t._ZN9__gnu_cxx9hashtableIPN4BEEV10ASTBVConstES3_NS2_16ASTBVConstHasherESt9_IdentityIS3_ENS2_15ASTBVConstEqualESaIS3_EE5clearEv	00000000 .gnu.linkonce.t._ZN9__gnu_cxx9hashtableIPN4BEEV10ASTBVConstES3_NS2_16ASTBVConstHasherESt9_IdentityIS3_ENS2_15ASTBVConstEqualESaIS3_EE5clearEv
00000000 l    d  .gnu.linkonce.t._ZNSt12_Vector_baseIPSt6vectorIN4BEEV7ASTNodeESaIS2_EESaIS5_EE12_Vector_implD1Ev	00000000 .gnu.linkonce.t._ZNSt12_Vector_baseIPSt6vectorIN4BEEV7ASTNodeESaIS2_EESaIS5_EE12_Vector_implD1Ev
00000000 l    d  .gnu.linkonce.t._ZN9__gnu_cxx9hashtableIPN4BEEV11ASTInteriorES3_NS2_17ASTInteriorHasherESt9_IdentityIS3_ENS2_16ASTInteriorEqualESaIS3_EE5clearEv	00000000 .gnu.linkonce.t._ZN9__gnu_cxx9hashtableIPN4BEEV11ASTInteriorES3_NS2_17ASTInteriorHasherESt9_IdentityIS3_ENS2_16ASTInteriorEqualESaIS3_EE5clearEv
00000000 l    d  .gnu.linkonce.t._ZNSt12_Vector_baseIPN9__gnu_cxx15_Hashtable_nodeIPN4BEEV11ASTInteriorEEESaIS6_EE12_Vector_implD1Ev	00000000 .gnu.linkonce.t._ZNSt12_Vector_baseIPN9__gnu_cxx15_Hashtable_nodeIPN4BEEV11ASTInteriorEEESaIS6_EE12_Vector_implD1Ev
00000000 l    d  .gnu.linkonce.t._ZNSt12_Vector_baseIPN9__gnu_cxx15_Hashtable_nodeIPN4BEEV10ASTBVConstEEESaIS6_EE12_Vector_implD1Ev	00000000 .gnu.linkonce.t._ZNSt12_Vector_baseIPN9__gnu_cxx15_Hashtable_nodeIPN4BEEV10ASTBVConstEEESaIS6_EE12_Vector_implD1Ev
00000000 l    d  .gnu.linkonce.t._ZNSt12_Vector_baseIPN9__gnu_cxx15_Hashtable_nodeIPN4BEEV9ASTSymbolEEESaIS6_EE12_Vector_implD1Ev	00000000 .gnu.linkonce.t._ZNSt12_Vector_baseIPN9__gnu_cxx15_Hashtable_nodeIPN4BEEV9ASTSymbolEEESaIS6_EE12_Vector_implD1Ev
00000000 l    d  .gnu.linkonce.t._ZN9__gnu_cxx9hashtableIPN4BEEV9ASTSymbolES3_NS2_15ASTSymbolHasherESt9_IdentityIS3_ENS2_14ASTSymbolEqualESaIS3_EE5clearEv	00000000 .gnu.linkonce.t._ZN9__gnu_cxx9hashtableIPN4BEEV9ASTSymbolES3_NS2_15ASTSymbolHasherESt9_IdentityIS3_ENS2_14ASTSymbolEqualESaIS3_EE5clearEv
00000000 l    d  .gnu.linkonce.t._ZNSt12_Vector_baseIPN9__gnu_cxx15_Hashtable_nodeIPN4BEEV10ASTBVConstEEESaIS6_EED2Ev	00000000 .gnu.linkonce.t._ZNSt12_Vector_baseIPN9__gnu_cxx15_Hashtable_nodeIPN4BEEV10ASTBVConstEEESaIS6_EED2Ev
00000000 l    d  .gnu.linkonce.t._ZNSt12_Vector_baseIPSt6vectorIN4BEEV7ASTNodeESaIS2_EESaIS5_EED2Ev	00000000 .gnu.linkonce.t._ZNSt12_Vector_baseIPSt6vectorIN4BEEV7ASTNodeESaIS2_EESaIS5_EED2Ev
00000000 l    d  .gnu.linkonce.t._ZNSt12_Vector_baseIPN9__gnu_cxx15_Hashtable_nodeIPN4BEEV11ASTInteriorEEESaIS6_EED2Ev	00000000 .gnu.linkonce.t._ZNSt12_Vector_baseIPN9__gnu_cxx15_Hashtable_nodeIPN4BEEV11ASTInteriorEEESaIS6_EED2Ev
00000000 l    d  .gnu.linkonce.t._ZNSt12_Vector_baseISt4pairIN4BEEV7ASTNodeES2_ESaIS3_EED2Ev	00000000 .gnu.linkonce.t._ZNSt12_Vector_baseISt4pairIN4BEEV7ASTNodeES2_ESaIS3_EED2Ev
00000000 l    d  .gnu.linkonce.t._ZNSt12_Vector_baseIPN9__gnu_cxx15_Hashtable_nodeIPN4BEEV9ASTSymbolEEESaIS6_EED2Ev	00000000 .gnu.linkonce.t._ZNSt12_Vector_baseIPN9__gnu_cxx15_Hashtable_nodeIPN4BEEV9ASTSymbolEEESaIS6_EED2Ev
00000000 l    d  .gnu.linkonce.t._ZNSt6vectorIN4BEEV7ASTNodeESaIS1_EEC1ERKS2_	00000000 .gnu.linkonce.t._ZNSt6vectorIN4BEEV7ASTNodeESaIS1_EEC1ERKS2_
00000000 l    d  .gnu.linkonce.t._ZNSt8fdoutbufD1Ev	00000000 .gnu.linkonce.t._ZNSt8fdoutbufD1Ev
00000000 l    d  .gnu.linkonce.t._ZNSt8fdoutbufD0Ev	00000000 .gnu.linkonce.t._ZNSt8fdoutbufD0Ev
00000000 l    d  .gnu.linkonce.t._ZN9__gnu_cxx9hashtableIPN4BEEV9ASTSymbolES3_NS2_15ASTSymbolHasherESt9_IdentityIS3_ENS2_14ASTSymbolEqualESaIS3_EED1Ev	00000000 .gnu.linkonce.t._ZN9__gnu_cxx9hashtableIPN4BEEV9ASTSymbolES3_NS2_15ASTSymbolHasherESt9_IdentityIS3_ENS2_14ASTSymbolEqualESaIS3_EED1Ev
00000000 l    d  .gnu.linkonce.t._ZNSt6vectorIPN9__gnu_cxx15_Hashtable_nodeIPN4BEEV9ASTSymbolEEESaIS6_EED1Ev	00000000 .gnu.linkonce.t._ZNSt6vectorIPN9__gnu_cxx15_Hashtable_nodeIPN4BEEV9ASTSymbolEEESaIS6_EED1Ev
00000000 l    d  .gnu.linkonce.t._ZNSt6vectorIPN9__gnu_cxx15_Hashtable_nodeIPN4BEEV9ASTSymbolEEESaIS6_EE14_M_fill_insertENS0_17__normal_iteratorIPS6_S8_EEjRKS6_	00000000 .gnu.linkonce.t._ZNSt6vectorIPN9__gnu_cxx15_Hashtable_nodeIPN4BEEV9ASTSymbolEEESaIS6_EE14_M_fill_insertENS0_17__normal_iteratorIPS6_S8_EEjRKS6_
00000000 l    d  .gnu.linkonce.t._ZNSt6vectorIPN9__gnu_cxx15_Hashtable_nodeIPN4BEEV9ASTSymbolEEESaIS6_EE7reserveEj	00000000 .gnu.linkonce.t._ZNSt6vectorIPN9__gnu_cxx15_Hashtable_nodeIPN4BEEV9ASTSymbolEEESaIS6_EE7reserveEj
00000000 l    d  .gnu.linkonce.t._ZN9__gnu_cxx9hashtableIPN4BEEV11ASTInteriorES3_NS2_17ASTInteriorHasherESt9_IdentityIS3_ENS2_16ASTInteriorEqualESaIS3_EED1Ev	00000000 .gnu.linkonce.t._ZN9__gnu_cxx9hashtableIPN4BEEV11ASTInteriorES3_NS2_17ASTInteriorHasherESt9_IdentityIS3_ENS2_16ASTInteriorEqualESaIS3_EED1Ev
00000000 l    d  .gnu.linkonce.t._ZNSt6vectorIPN9__gnu_cxx15_Hashtable_nodeIPN4BEEV11ASTInteriorEEESaIS6_EED1Ev	00000000 .gnu.linkonce.t._ZNSt6vectorIPN9__gnu_cxx15_Hashtable_nodeIPN4BEEV11ASTInteriorEEESaIS6_EED1Ev
00000000 l    d  .gnu.linkonce.t._ZNSt6vectorIPN9__gnu_cxx15_Hashtable_nodeIPN4BEEV11ASTInteriorEEESaIS6_EE14_M_fill_insertENS0_17__normal_iteratorIPS6_S8_EEjRKS6_	00000000 .gnu.linkonce.t._ZNSt6vectorIPN9__gnu_cxx15_Hashtable_nodeIPN4BEEV11ASTInteriorEEESaIS6_EE14_M_fill_insertENS0_17__normal_iteratorIPS6_S8_EEjRKS6_
00000000 l    d  .gnu.linkonce.t._ZNSt6vectorIPN9__gnu_cxx15_Hashtable_nodeIPN4BEEV11ASTInteriorEEESaIS6_EE7reserveEj	00000000 .gnu.linkonce.t._ZNSt6vectorIPN9__gnu_cxx15_Hashtable_nodeIPN4BEEV11ASTInteriorEEESaIS6_EE7reserveEj
00000000 l    d  .gnu.linkonce.t._ZNSt6vectorIPN9__gnu_cxx15_Hashtable_nodeISt4pairIKN4BEEV7ASTNodeEiEEESaIS8_EE14_M_fill_insertENS0_17__normal_iteratorIPS8_SA_EEjRKS8_	00000000 .gnu.linkonce.t._ZNSt6vectorIPN9__gnu_cxx15_Hashtable_nodeISt4pairIKN4BEEV7ASTNodeEiEEESaIS8_EE14_M_fill_insertENS0_17__normal_iteratorIPS8_SA_EEjRKS8_
00000000 l    d  .gnu.linkonce.t._ZNSt6vectorIPN9__gnu_cxx15_Hashtable_nodeISt4pairIKN4BEEV7ASTNodeEiEEESaIS8_EE7reserveEj	00000000 .gnu.linkonce.t._ZNSt6vectorIPN9__gnu_cxx15_Hashtable_nodeISt4pairIKN4BEEV7ASTNodeEiEEESaIS8_EE7reserveEj
00000000 l    d  .gnu.linkonce.t._ZNSt6vectorIPN9__gnu_cxx15_Hashtable_nodeISt4pairIKN4BEEV7ASTNodeES_IS4_SaIS4_EEEEESaISA_EE14_M_fill_insertENS0_17__normal_iteratorIPSA_SC_EEjRKSA_	00000000 .gnu.linkonce.t._ZNSt6vectorIPN9__gnu_cxx15_Hashtable_nodeISt4pairIKN4BEEV7ASTNodeES_IS4_SaIS4_EEEEESaISA_EE14_M_fill_insertENS0_17__normal_iteratorIPSA_SC_EEjRKSA_
00000000 l    d  .gnu.linkonce.t._ZNSt6vectorIPN9__gnu_cxx15_Hashtable_nodeISt4pairIKN4BEEV7ASTNodeES_IS4_SaIS4_EEEEESaISA_EE7reserveEj	00000000 .gnu.linkonce.t._ZNSt6vectorIPN9__gnu_cxx15_Hashtable_nodeISt4pairIKN4BEEV7ASTNodeES_IS4_SaIS4_EEEEESaISA_EE7reserveEj
00000000 l    d  .gnu.linkonce.t._ZNSt6vectorIPN9__gnu_cxx15_Hashtable_nodeIN4BEEV7ASTNodeEEESaIS5_EE14_M_fill_insertENS0_17__normal_iteratorIPS5_S7_EEjRKS5_	00000000 .gnu.linkonce.t._ZNSt6vectorIPN9__gnu_cxx15_Hashtable_nodeIN4BEEV7ASTNodeEEESaIS5_EE14_M_fill_insertENS0_17__normal_iteratorIPS5_S7_EEjRKS5_
00000000 l    d  .gnu.linkonce.t._ZNSt6vectorIPN9__gnu_cxx15_Hashtable_nodeIN4BEEV7ASTNodeEEESaIS5_EE7reserveEj	00000000 .gnu.linkonce.t._ZNSt6vectorIPN9__gnu_cxx15_Hashtable_nodeIN4BEEV7ASTNodeEEESaIS5_EE7reserveEj
00000000 l    d  .gnu.linkonce.t._ZN9__gnu_cxx9hashtableIN4BEEV7ASTNodeES2_NS2_13ASTNodeHasherESt9_IdentityIS2_ENS2_12ASTNodeEqualESaIS2_EEC1EjRKS3_RKS6_RKS7_	00000000 .gnu.linkonce.t._ZN9__gnu_cxx9hashtableIN4BEEV7ASTNodeES2_NS2_13ASTNodeHasherESt9_IdentityIS2_ENS2_12ASTNodeEqualESaIS2_EEC1EjRKS3_RKS6_RKS7_
00000000 l    d  .gnu.linkonce.t._ZN9__gnu_cxx9hashtableIPN4BEEV10ASTBVConstES3_NS2_16ASTBVConstHasherESt9_IdentityIS3_ENS2_15ASTBVConstEqualESaIS3_EED1Ev	00000000 .gnu.linkonce.t._ZN9__gnu_cxx9hashtableIPN4BEEV10ASTBVConstES3_NS2_16ASTBVConstHasherESt9_IdentityIS3_ENS2_15ASTBVConstEqualESaIS3_EED1Ev
00000000 l    d  .gnu.linkonce.t._ZN9__gnu_cxx8hash_setIPN4BEEV10ASTBVConstENS2_16ASTBVConstHasherENS2_15ASTBVConstEqualESaIS3_EED1Ev	00000000 .gnu.linkonce.t._ZN9__gnu_cxx8hash_setIPN4BEEV10ASTBVConstENS2_16ASTBVConstHasherENS2_15ASTBVConstEqualESaIS3_EED1Ev
00000000 l    d  .gnu.linkonce.t._ZNSt6vectorIPN9__gnu_cxx15_Hashtable_nodeIPN4BEEV10ASTBVConstEEESaIS6_EED1Ev	00000000 .gnu.linkonce.t._ZNSt6vectorIPN9__gnu_cxx15_Hashtable_nodeIPN4BEEV10ASTBVConstEEESaIS6_EED1Ev
00000000 l    d  .gnu.linkonce.t._ZNSt6vectorIPN9__gnu_cxx15_Hashtable_nodeIPN4BEEV10ASTBVConstEEESaIS6_EE14_M_fill_insertENS0_17__normal_iteratorIPS6_S8_EEjRKS6_	00000000 .gnu.linkonce.t._ZNSt6vectorIPN9__gnu_cxx15_Hashtable_nodeIPN4BEEV10ASTBVConstEEESaIS6_EE14_M_fill_insertENS0_17__normal_iteratorIPS6_S8_EEjRKS6_
00000000 l    d  .gnu.linkonce.t._ZNSt6vectorIPN9__gnu_cxx15_Hashtable_nodeIPN4BEEV10ASTBVConstEEESaIS6_EE7reserveEj	00000000 .gnu.linkonce.t._ZNSt6vectorIPN9__gnu_cxx15_Hashtable_nodeIPN4BEEV10ASTBVConstEEESaIS6_EE7reserveEj
00000000 l    d  .gnu.linkonce.t._ZNSt6vectorIPN9__gnu_cxx15_Hashtable_nodeISt4pairIKN4BEEV7ASTNodeEPNS0_8hash_mapIjbNS0_4hashIjEESt8equal_toIjESaIbEEEEEESaISG_EE14_M_fill_insertENS0_17__normal_iteratorIPSG_SI_EEjRKSG_	00000000 .gnu.linkonce.t._ZNSt6vectorIPN9__gnu_cxx15_Hashtable_nodeISt4pairIKN4BEEV7ASTNodeEPNS0_8hash_mapIjbNS0_4hashIjEESt8equal_toIjESaIbEEEEEESaISG_EE14_M_fill_insertENS0_17__normal_iteratorIPSG_SI_EEjRKSG_
00000000 l    d  .gnu.linkonce.t._ZNSt6vectorIPN9__gnu_cxx15_Hashtable_nodeISt4pairIKN4BEEV7ASTNodeEPNS0_8hash_mapIjbNS0_4hashIjEESt8equal_toIjESaIbEEEEEESaISG_EE7reserveEj	00000000 .gnu.linkonce.t._ZNSt6vectorIPN9__gnu_cxx15_Hashtable_nodeISt4pairIKN4BEEV7ASTNodeEPNS0_8hash_mapIjbNS0_4hashIjEESt8equal_toIjESaIbEEEEEESaISG_EE7reserveEj
00000000 l    d  .gnu.linkonce.t._ZNSt6vectorIPN9__gnu_cxx15_Hashtable_nodeISt4pairIKN4BEEV7ASTNodeES4_EEESaIS8_EE14_M_fill_insertENS0_17__normal_iteratorIPS8_SA_EEjRKS8_	00000000 .gnu.linkonce.t._ZNSt6vectorIPN9__gnu_cxx15_Hashtable_nodeISt4pairIKN4BEEV7ASTNodeES4_EEESaIS8_EE14_M_fill_insertENS0_17__normal_iteratorIPS8_SA_EEjRKS8_
00000000 l    d  .gnu.linkonce.t._ZNSt6vectorIPN9__gnu_cxx15_Hashtable_nodeISt4pairIKN4BEEV7ASTNodeES4_EEESaIS8_EE7reserveEj	00000000 .gnu.linkonce.t._ZNSt6vectorIPN9__gnu_cxx15_Hashtable_nodeISt4pairIKN4BEEV7ASTNodeES4_EEESaIS8_EE7reserveEj
00000000 l    d  .gnu.linkonce.t._ZNSt6vectorIPN9__gnu_cxx15_Hashtable_nodeISt4pairIKN4BEEV7ASTNodeES4_EEESaIS8_EE5eraseENS0_17__normal_iteratorIPS8_SA_EESD_	00000000 .gnu.linkonce.t._ZNSt6vectorIPN9__gnu_cxx15_Hashtable_nodeISt4pairIKN4BEEV7ASTNodeES4_EEESaIS8_EE5eraseENS0_17__normal_iteratorIPS8_SA_EESD_
00000000 l    d  .gnu.linkonce.t._ZN9__gnu_cxx9hashtableISt4pairIKN4BEEV7ASTNodeES3_ES3_NS3_13ASTNodeHasherESt10_Select1stIS5_ENS3_12ASTNodeEqualESaIS3_EE5clearEv	00000000 .gnu.linkonce.t._ZN9__gnu_cxx9hashtableISt4pairIKN4BEEV7ASTNodeES3_ES3_NS3_13ASTNodeHasherESt10_Select1stIS5_ENS3_12ASTNodeEqualESaIS3_EE5clearEv
00000000 l    d  .gnu.linkonce.t._ZN9__gnu_cxx9hashtableISt4pairIKN4BEEV7ASTNodeES3_ES3_NS3_13ASTNodeHasherESt10_Select1stIS5_ENS3_12ASTNodeEqualESaIS3_EED1Ev	00000000 .gnu.linkonce.t._ZN9__gnu_cxx9hashtableISt4pairIKN4BEEV7ASTNodeES3_ES3_NS3_13ASTNodeHasherESt10_Select1stIS5_ENS3_12ASTNodeEqualESaIS3_EED1Ev
00000000 l    d  .gnu.linkonce.t._ZN9__gnu_cxx8hash_mapIN4BEEV7ASTNodeES2_NS2_13ASTNodeHasherENS2_12ASTNodeEqualESaIS2_EEC1Ev	00000000 .gnu.linkonce.t._ZN9__gnu_cxx8hash_mapIN4BEEV7ASTNodeES2_NS2_13ASTNodeHasherENS2_12ASTNodeEqualESaIS2_EEC1Ev
00000000 l    d  .gnu.linkonce.t._ZN9__gnu_cxx8hash_mapIN4BEEV7ASTNodeES2_NS2_13ASTNodeHasherENS2_12ASTNodeEqualESaIS2_EEC1Ej	00000000 .gnu.linkonce.t._ZN9__gnu_cxx8hash_mapIN4BEEV7ASTNodeES2_NS2_13ASTNodeHasherENS2_12ASTNodeEqualESaIS2_EEC1Ej
00000000 l    d  .gnu.linkonce.t._ZN9__gnu_cxx9hashtableISt4pairIKN4BEEV7ASTNodeES3_ES3_NS3_13ASTNodeHasherESt10_Select1stIS5_ENS3_12ASTNodeEqualESaIS3_EE6resizeEj	00000000 .gnu.linkonce.t._ZN9__gnu_cxx9hashtableISt4pairIKN4BEEV7ASTNodeES3_ES3_NS3_13ASTNodeHasherESt10_Select1stIS5_ENS3_12ASTNodeEqualESaIS3_EE6resizeEj
00000000 l    d  .gnu.linkonce.t._ZSt8_DestroyIN9__gnu_cxx17__normal_iteratorIPN4BEEV7ASTNodeESt6vectorIS3_SaIS3_EEEES6_EvT_S9_T0_	00000000 .gnu.linkonce.t._ZSt8_DestroyIN9__gnu_cxx17__normal_iteratorIPN4BEEV7ASTNodeESt6vectorIS3_SaIS3_EEEES6_EvT_S9_T0_
00000000 l    d  .gnu.linkonce.t._ZN9__gnu_cxx9hashtableIN4BEEV7ASTNodeES2_NS2_13ASTNodeHasherESt9_IdentityIS2_ENS2_12ASTNodeEqualESaIS2_EE5clearEv	00000000 .gnu.linkonce.t._ZN9__gnu_cxx9hashtableIN4BEEV7ASTNodeES2_NS2_13ASTNodeHasherESt9_IdentityIS2_ENS2_12ASTNodeEqualESaIS2_EE5clearEv
00000000 l    d  .gnu.linkonce.t._ZN9__gnu_cxx9hashtableIN4BEEV7ASTNodeES2_NS2_13ASTNodeHasherESt9_IdentityIS2_ENS2_12ASTNodeEqualESaIS2_EED1Ev	00000000 .gnu.linkonce.t._ZN9__gnu_cxx9hashtableIN4BEEV7ASTNodeES2_NS2_13ASTNodeHasherESt9_IdentityIS2_ENS2_12ASTNodeEqualESaIS2_EED1Ev
00000000 l    d  .gnu.linkonce.t._ZN9__gnu_cxx8hash_setIN4BEEV7ASTNodeENS2_13ASTNodeHasherENS2_12ASTNodeEqualESaIS2_EEC1Ev	00000000 .gnu.linkonce.t._ZN9__gnu_cxx8hash_setIN4BEEV7ASTNodeENS2_13ASTNodeHasherENS2_12ASTNodeEqualESaIS2_EEC1Ev
00000000 l    d  .gnu.linkonce.t._ZSt8_DestroyIPSt4pairIN4BEEV7ASTNodeES2_ESaIS3_EEvT_S6_T0_	00000000 .gnu.linkonce.t._ZSt8_DestroyIPSt4pairIN4BEEV7ASTNodeES2_ESaIS3_EEvT_S6_T0_
00000000 l    d  .gnu.linkonce.t._ZN9__gnu_cxx9hashtableISt4pairIKN4BEEV7ASTNodeEPNS_8hash_mapIjbNS_4hashIjEESt8equal_toIjESaIbEEEES3_NS3_13ASTNodeHasherESt10_Select1stISD_ENS3_12ASTNodeEqualESaISC_EE5clearEv	00000000 .gnu.linkonce.t._ZN9__gnu_cxx9hashtableISt4pairIKN4BEEV7ASTNodeEPNS_8hash_mapIjbNS_4hashIjEESt8equal_toIjESaIbEEEES3_NS3_13ASTNodeHasherESt10_Select1stISD_ENS3_12ASTNodeEqualESaISC_EE5clearEv
00000000 l    d  .gnu.linkonce.t._ZN9__gnu_cxx9hashtableISt4pairIKN4BEEV7ASTNodeEPNS_8hash_mapIjbNS_4hashIjEESt8equal_toIjESaIbEEEES3_NS3_13ASTNodeHasherESt10_Select1stISD_ENS3_12ASTNodeEqualESaISC_EED1Ev	00000000 .gnu.linkonce.t._ZN9__gnu_cxx9hashtableISt4pairIKN4BEEV7ASTNodeEPNS_8hash_mapIjbNS_4hashIjEESt8equal_toIjESaIbEEEES3_NS3_13ASTNodeHasherESt10_Select1stISD_ENS3_12ASTNodeEqualESaISC_EED1Ev
00000000 l    d  .gnu.linkonce.t._ZN9__gnu_cxx8hash_mapIN4BEEV7ASTNodeEPNS0_IjbNS_4hashIjEESt8equal_toIjESaIbEEENS2_13ASTNodeHasherENS2_12ASTNodeEqualESaIS9_EEC1Ev	00000000 .gnu.linkonce.t._ZN9__gnu_cxx8hash_mapIN4BEEV7ASTNodeEPNS0_IjbNS_4hashIjEESt8equal_toIjESaIbEEENS2_13ASTNodeHasherENS2_12ASTNodeEqualESaIS9_EEC1Ev
00000000 l    d  .gnu.linkonce.t._ZN9__gnu_cxx9hashtableISt4pairIKN4BEEV7ASTNodeEiES3_NS3_13ASTNodeHasherESt10_Select1stIS5_ENS3_12ASTNodeEqualESaIiEE5clearEv	00000000 .gnu.linkonce.t._ZN9__gnu_cxx9hashtableISt4pairIKN4BEEV7ASTNodeEiES3_NS3_13ASTNodeHasherESt10_Select1stIS5_ENS3_12ASTNodeEqualESaIiEE5clearEv
00000000 l    d  .gnu.linkonce.t._ZN9__gnu_cxx9hashtableISt4pairIKN4BEEV7ASTNodeEiES3_NS3_13ASTNodeHasherESt10_Select1stIS5_ENS3_12ASTNodeEqualESaIiEED1Ev	00000000 .gnu.linkonce.t._ZN9__gnu_cxx9hashtableISt4pairIKN4BEEV7ASTNodeEiES3_NS3_13ASTNodeHasherESt10_Select1stIS5_ENS3_12ASTNodeEqualESaIiEED1Ev
00000000 l    d  .gnu.linkonce.t._ZN9__gnu_cxx8hash_mapIN4BEEV7ASTNodeEiNS2_13ASTNodeHasherENS2_12ASTNodeEqualESaIiEEC1Ev	00000000 .gnu.linkonce.t._ZN9__gnu_cxx8hash_mapIN4BEEV7ASTNodeEiNS2_13ASTNodeHasherENS2_12ASTNodeEqualESaIiEEC1Ev
00000530 l     F .text	0000018d _Z24vc_printVarDeclsToStreamPvRSo
00000000 l    d  .gnu.linkonce.t._ZN9__gnu_cxx9hashtableISt4pairIKN4BEEV7ASTNodeES3_ES3_NS3_13ASTNodeHasherESt10_Select1stIS5_ENS3_12ASTNodeEqualESaIS3_EE14find_or_insertERKS5_	00000000 .gnu.linkonce.t._ZN9__gnu_cxx9hashtableISt4pairIKN4BEEV7ASTNodeES3_ES3_NS3_13ASTNodeHasherESt10_Select1stIS5_ENS3_12ASTNodeEqualESaIS3_EE14find_or_insertERKS5_
00000000 l    d  .gnu.linkonce.t._ZNSt6vectorIN4BEEV7ASTNodeESaIS1_EE13_M_insert_auxEN9__gnu_cxx17__normal_iteratorIPS1_S3_EERKS1_	00000000 .gnu.linkonce.t._ZNSt6vectorIN4BEEV7ASTNodeESaIS1_EE13_M_insert_auxEN9__gnu_cxx17__normal_iteratorIPS1_S3_EERKS1_
00000000 l    d  .gnu.linkonce.t._ZSt8_DestroyIPN4BEEV7ASTNodeESaIS1_EEvT_S4_T0_	00000000 .gnu.linkonce.t._ZSt8_DestroyIPN4BEEV7ASTNodeESaIS1_EEvT_S4_T0_
00000000 l    d  .gnu.linkonce.t._ZNSt6vectorIN4BEEV7ASTNodeESaIS1_EED1Ev	00000000 .gnu.linkonce.t._ZNSt6vectorIN4BEEV7ASTNodeESaIS1_EED1Ev
00000000 l    d  .gnu.linkonce.t._ZN9__gnu_cxx9hashtableISt4pairIKN4BEEV7ASTNodeES3_ES3_NS3_13ASTNodeHasherESt10_Select1stIS5_ENS3_12ASTNodeEqualESaIS3_EE12_M_copy_fromERKSB_	00000000 .gnu.linkonce.t._ZN9__gnu_cxx9hashtableISt4pairIKN4BEEV7ASTNodeES3_ES3_NS3_13ASTNodeHasherESt10_Select1stIS5_ENS3_12ASTNodeEqualESaIS3_EE12_M_copy_fromERKSB_
00000000 l    d  .gnu.linkonce.t._ZNSt9fdostreamD1Ev	00000000 .gnu.linkonce.t._ZNSt9fdostreamD1Ev
00000000 l    d  .gnu.linkonce.t._ZNSt9fdostreamD0Ev	00000000 .gnu.linkonce.t._ZNSt9fdostreamD0Ev
00000000 l    d  .gnu.linkonce.t._ZN9__gnu_cxx9hashtableISt4pairIKN4BEEV7ASTNodeESt6vectorIS3_SaIS3_EEES3_NS3_13ASTNodeHasherESt10_Select1stIS8_ENS3_12ASTNodeEqualESaIS7_EE5clearEv	00000000 .gnu.linkonce.t._ZN9__gnu_cxx9hashtableISt4pairIKN4BEEV7ASTNodeESt6vectorIS3_SaIS3_EEES3_NS3_13ASTNodeHasherESt10_Select1stIS8_ENS3_12ASTNodeEqualESaIS7_EE5clearEv
00000000 l    d  .gnu.linkonce.t._ZN9__gnu_cxx8hash_mapIN4BEEV7ASTNodeESt6vectorIS2_SaIS2_EENS2_13ASTNodeHasherENS2_12ASTNodeEqualESaIS5_EEC1Ev	00000000 .gnu.linkonce.t._ZN9__gnu_cxx8hash_mapIN4BEEV7ASTNodeESt6vectorIS2_SaIS2_EENS2_13ASTNodeHasherENS2_12ASTNodeEqualESaIS5_EEC1Ev
00000000 l    d  .gnu.linkonce.t._ZN9__gnu_cxx8hash_mapIN4BEEV7ASTNodeESt6vectorIS2_SaIS2_EENS2_13ASTNodeHasherENS2_12ASTNodeEqualESaIS5_EED1Ev	00000000 .gnu.linkonce.t._ZN9__gnu_cxx8hash_mapIN4BEEV7ASTNodeESt6vectorIS2_SaIS2_EENS2_13ASTNodeHasherENS2_12ASTNodeEqualESaIS5_EED1Ev
00000000 l    d  .gnu.linkonce.t._ZN4BEEV7BeevMgrC1Ev	00000000 .gnu.linkonce.t._ZN4BEEV7BeevMgrC1Ev
00003970 l     F .text	00000212 _Z23vc_printAssertsToStreamPvRSoi
00000080 l     O .rodata	0000002f _ZZ28vc_getHashQueryStateToBufferE19__PRETTY_FUNCTION__
00000120 l     O .rodata	0000004f _ZZ26vc_printQueryStateToBufferE19__PRETTY_FUNCTION__
00000180 l     O .rodata	00000047 _ZZ30vc_printCounterExampleToBufferE19__PRETTY_FUNCTION__
00000000 l    d  .eh_frame	00000000 .eh_frame
00000000 l    d  .note.GNU-stack	00000000 .note.GNU-stack
00000000 l    d  .comment	00000000 .comment
00000000 l    d  .group	00000000 .group
00000000 l    d  .group	00000000 .group
00000000 l    d  .group	00000000 .group
00000000 l    d  .group	00000000 .group
00000000 l    d  .group	00000000 .group
00000000 l    d  .group	00000000 .group
00000000 l    d  .group	00000000 .group
00000000 l    d  .group	00000000 .group
00000000 l    d  .group	00000000 .group
00000000 l    d  .group	00000000 .group
00000000 l    d  .group	00000000 .group
00000000 l    d  .group	00000000 .group
00000000 l    d  .group	00000000 .group
00000000 l    d  .group	00000000 .group
00000000 l    d  .group	00000000 .group
00000000 l    d  .group	00000000 .group
00000000 l    d  .group	00000000 .group
00000000 l    d  .group	00000000 .group
00000000 l    d  .group	00000000 .group
00000000 l    d  .group	00000000 .group
00000000 l    d  .group	00000000 .group
00000000 l    d  .group	00000000 .group
00000000 l    d  .group	00000000 .group
00000000 l    d  .group	00000000 .group
00000000 l    d  .group	00000000 .group
00000000 l    d  .group	00000000 .group
00000000 l    d  .group	00000000 .group
00000000 l    d  .group	00000000 .group
00000000 l    d  .group	00000000 .group
00000000 l    d  .group	00000000 .group
00000000 l    d  .group	00000000 .group
00000000 l    d  .group	00000000 .group
00000000 l    d  .group	00000000 .group
00000000 l    d  .group	00000000 .group
00000000 l    d  .group	00000000 .group
00000000 l    d  .group	00000000 .group
00000000 l    d  .group	00000000 .group
00000000 l    d  .group	00000000 .group
00000000 l    d  .group	00000000 .group
00000000 l    d  .group	00000000 .group
00000000 l    d  .group	00000000 .group
00000000 l    d  .group	00000000 .group
00000000 l    d  .group	00000000 .group
00000000 l    d  .group	00000000 .group
00000000 l    d  .group	00000000 .group
00000000 l    d  .group	00000000 .group
00000000 l    d  .group	00000000 .group
00000000 l    d  .group	00000000 .group
00000000 l    d  .group	00000000 .group
00000000 l    d  .group	00000000 .group
00000000 l    d  .group	00000000 .group
00000000 l    d  .group	00000000 .group
00000000 l    d  .group	00000000 .group
00000000 l    d  .group	00000000 .group
00000000 l    d  .group	00000000 .group
00000000 l    d  .group	00000000 .group
00000000 l    d  .group	00000000 .group
00000000 l    d  .group	00000000 .group
00000000 l    d  .group	00000000 .group
00000000 l    d  .group	00000000 .group
00000000 l    d  .group	00000000 .group
00000000 l    d  .group	00000000 .group
00000000 l    d  .group	00000000 .group
00000000 l    d  .group	00000000 .group
00000000 l    d  .group	00000000 .group
00000000 l    d  .group	00000000 .group
00000000 l    d  .group	00000000 .group
00000000 l    d  .group	00000000 .group
00000000 l    d  .group	00000000 .group
00000000 l    d  .group	00000000 .group
00000000 l    d  .group	00000000 .group
00000000 l    d  .group	00000000 .group
00000000 l    d  .group	00000000 .group
00000000 l    d  .group	00000000 .group
00000000 l    d  .group	00000000 .group
00000000 l    d  .group	00000000 .group
00000000 l    d  .group	00000000 .group
00000000 l    d  .group	00000000 .group
00000000 l    d  .group	00000000 .group
00000000 l    d  .group	00000000 .group
00000000 l    d  .group	00000000 .group
00000000 l    d  .group	00000000 .group
00000000 l    d  .group	00000000 .group
00000000 l    d  .group	00000000 .group
00000000 l    d  .group	00000000 .group
00000000 l    d  .group	00000000 .group
00000000 l    d  .group	00000000 .group
00000000 l    d  .group	00000000 .group
00000000 l    d  .group	00000000 .group
00000000 l    d  .group	00000000 .group
00000000 l    d  .group	00000000 .group
00000000 l    d  .group	00000000 .group
00000000 l    d  .group	00000000 .group
00000000 l    d  .group	00000000 .group
00000000 l    d  .group	00000000 .group
00000000 l    d  .group	00000000 .group
00000000 l    d  .group	00000000 .group
00000000 l    d  .group	00000000 .group
00000000 l    d  .group	00000000 .group
00000000 l    d  .group	00000000 .group
00000000 l    d  .group	00000000 .group
00000000 l    d  .group	00000000 .group
00000000 l    d  .group	00000000 .group
00000000 l    d  .group	00000000 .group
00000000 l    d  .group	00000000 .group
00000000 l    d  .group	00000000 .group
00000000 l    d  .group	00000000 .group
00000000 l    d  .group	00000000 .group
00000000 l    d  .group	00000000 .group
00000000 l    d  .group	00000000 .group
00000000 l    d  .group	00000000 .group
00000000 l    d  .group	00000000 .group
00000000 l    d  .group	00000000 .group
00000000 l    d  .group	00000000 .group
00000000 l    d  .group	00000000 .group
00000000 l    d  .group	00000000 .group
00000000 l    d  .group	00000000 .group
00000000 l    d  .group	00000000 .group
00000000 l    d  .group	00000000 .group
00000000 l    d  .group	00000000 .group
00000000 l    d  .group	00000000 .group
00000000 l    d  .group	00000000 .group
00000000 l    d  .group	00000000 .group
00000000 l    d  .group	00000000 .group
00000000 l    d  .group	00000000 .group
00000000 l    d  .group	00000000 .group
00000000 l    d  .group	00000000 .group
00000000 l    d  .group	00000000 .group
00000000 l    d  .group	00000000 .group
00000000 l    d  .group	00000000 .group
00000000 l    d  .group	00000000 .group
00000000 l    d  .group	00000000 .group
00000000 l    d  .group	00000000 .group
00000000 l    d  .group	00000000 .group
00000000 l    d  .group	00000000 .group
00000000 l    d  .group	00000000 .group
00000000 l    d  .group	00000000 .group
00000000 l    d  .group	00000000 .group
00000000 l    d  .group	00000000 .group
00000000 l    d  .group	00000000 .group
00000000 l    d  .group	00000000 .group
00000000 l    d  .group	00000000 .group
00000000 l    d  .group	00000000 .group
00000000 l    d  .group	00000000 .group
00000000 l    d  .group	00000000 .group
00000000 l    d  .group	00000000 .group
00000000 l    d  .group	00000000 .group
00000000 l    d  .group	00000000 .group
00000000 l    d  .group	00000000 .group
00000000 l    d  .group	00000000 .group
00000000 l    d  .group	00000000 .group
00000000 l    d  .group	00000000 .group
00000000 l    d  .group	00000000 .group
00000000 l    d  .group	00000000 .group
00000000 l    d  .group	00000000 .group
00000000 l    d  .group	00000000 .group
00000000 g     O .bss	00000001 cinterface_exprdelete_on
00000004 g     O .bss	00000004 decls
00000000  w    O .gnu.linkonce.r._ZTCSt9fdostream0_So	00000028 _ZTCSt9fdostream0_So
00000000         *UND*	00000000 _ZTISo
00000000         *UND*	00000000 _ZNSoD1Ev
00000000         *UND*	00000000 _ZNSoD0Ev
00000000         *UND*	00000000 _ZTv0_n12_NSoD1Ev
00000000         *UND*	00000000 _ZTv0_n12_NSoD0Ev
00000000  w    O .gnu.linkonce.r._ZTVSt9fdostream	00000028 _ZTVSt9fdostream
00000000  w    O .gnu.linkonce.r._ZTISt9fdostream	0000000c _ZTISt9fdostream
00000010  w    F .gnu.linkonce.t._ZNSt9fdostreamD1Ev	00000052 _ZNSt9fdostreamD1Ev
00000010  w    F .gnu.linkonce.t._ZNSt9fdostreamD0Ev	0000005a _ZNSt9fdostreamD0Ev
00000000  w    F .gnu.linkonce.t._ZNSt9fdostreamD1Ev	0000000f _ZTv0_n12_NSt9fdostreamD1Ev
00000000  w    F .gnu.linkonce.t._ZNSt9fdostreamD0Ev	0000000f _ZTv0_n12_NSt9fdostreamD0Ev
00000000         *UND*	00000000 _ZTVN10__cxxabiv120__si_class_type_infoE
00000000  w    O .gnu.linkonce.r._ZTSSt9fdostream	0000000d _ZTSSt9fdostream
00000000  w    O .gnu.linkonce.r._ZTTSt9fdostream	00000010 _ZTTSt9fdostream
00000000  w    O .gnu.linkonce.r._ZTVSt8fdoutbuf	00000040 _ZTVSt8fdoutbuf
00000000  w    O .gnu.linkonce.r._ZTISt8fdoutbuf	0000000c _ZTISt8fdoutbuf
00000000  w    F .gnu.linkonce.t._ZNSt8fdoutbufD1Ev	00000018 _ZNSt8fdoutbufD1Ev
00000000  w    F .gnu.linkonce.t._ZNSt8fdoutbufD0Ev	00000028 _ZNSt8fdoutbufD0Ev
00000000         *UND*	00000000 _ZNSt15basic_streambufIcSt11char_traitsIcEE5imbueERKSt6locale
00000000         *UND*	00000000 _ZNSt15basic_streambufIcSt11char_traitsIcEE6setbufEPci
00000000         *UND*	00000000 _ZNSt15basic_streambufIcSt11char_traitsIcEE7seekoffExSt12_Ios_SeekdirSt13_Ios_Openmode
00000000         *UND*	00000000 _ZNSt15basic_streambufIcSt11char_traitsIcEE7seekposESt4fposI11__mbstate_tESt13_Ios_Openmode
00000000         *UND*	00000000 _ZNSt15basic_streambufIcSt11char_traitsIcEE4syncEv
00000000         *UND*	00000000 _ZNSt15basic_streambufIcSt11char_traitsIcEE9showmanycEv
00000000         *UND*	00000000 _ZNSt15basic_streambufIcSt11char_traitsIcEE6xsgetnEPci
00000000         *UND*	00000000 _ZNSt15basic_streambufIcSt11char_traitsIcEE9underflowEv
00000000         *UND*	00000000 _ZNSt15basic_streambufIcSt11char_traitsIcEE5uflowEv
00000000         *UND*	00000000 _ZNSt15basic_streambufIcSt11char_traitsIcEE9pbackfailEi
00000000  w    F .gnu.linkonce.t._ZNSt8fdoutbuf6xsputnEPKci	00000012 _ZNSt8fdoutbuf6xsputnEPKci
00000000  w    F .gnu.linkonce.t._ZNSt8fdoutbuf8overflowEi	00000037 _ZNSt8fdoutbuf8overflowEi
00000000  w    O .gnu.linkonce.r._ZTSSt8fdoutbuf	0000000c _ZTSSt8fdoutbuf
00000000         *UND*	00000000 _ZTISt15basic_streambufIcSt11char_traitsIcEE
00000000         *UND*	00000000 write
00000000  w    F .gnu.linkonce.t._ZN4BEEV7ASTNodeD1Ev	0000002b _ZN4BEEV7ASTNodeD1Ev
00000000 g     F .text	0000001f vc_push
00000000         *UND*	00000000 _ZN4BEEV7BeevMgr14ClearAllCachesEv
00000000         *UND*	00000000 _ZN4BEEV7BeevMgr4PushEv
00000020 g     F .text	00000009 vc_pop
00000000         *UND*	00000000 _ZN4BEEV7BeevMgr3PopEv
00000030 g     F .text	00000045 vc_printCounterExample
00000000         *UND*	00000000 _ZN4BEEV20print_counterexampleE
00000000         *UND*	00000000 _ZSt4cout
00000000         *UND*	00000000 _ZStlsISt11char_traitsIcEERSt13basic_ostreamIcT_ES5_PKc
00000000         *UND*	00000000 _ZN4BEEV7BeevMgr19PrintCounterExampleEbRSo
00000080 g     F .text	0000000d vc_registerErrorHandler
00000000         *UND*	00000000 _ZN4BEEV13vc_error_hdlrE
00000090 g     F .text	00000012 getExprKind
000000b0 g     F .text	0000000d getVWidth
000000c0 g     F .text	0000000d getIWidth
000000d0 g     F .text	00000009 exprName
00000000         *UND*	00000000 _ZNK4BEEV7ASTNode7GetNameEv
000000e0 g     F .text	00000009 GetTrueCounterExampleFst
00000000         *UND*	00000000 _ZN4BEEV7BeevMgr24GetTrueCounterExampleFstEv
000000f0 g     F .text	00000009 GetTrueCounterExampleSnd
00000000         *UND*	00000000 _ZN4BEEV7BeevMgr24GetTrueCounterExampleSndEv
00000100 g     F .text	00000010 vc_counterexample_size
00000000  w    F .gnu.linkonce.t._ZN9__gnu_cxx13new_allocatorISt4pairIN4BEEV7ASTNodeES3_EEC2Ev	00000005 _ZN9__gnu_cxx13new_allocatorISt4pairIN4BEEV7ASTNodeES3_EEC2Ev
00000000  w    F .gnu.linkonce.t._ZSt8_DestroyIPPSt6vectorIN4BEEV7ASTNodeESaIS2_EESaIS5_EEvT_S8_T0_	00000019 _ZSt8_DestroyIPPSt6vectorIN4BEEV7ASTNodeESaIS2_EESaIS5_EEvT_S8_T0_
00000000  w    F .gnu.linkonce.t._ZSt8_DestroyIPPN9__gnu_cxx15_Hashtable_nodeISt4pairIKN4BEEV7ASTNodeES4_EEESaIS8_EEvT_SB_T0_	00000019 _ZSt8_DestroyIPPN9__gnu_cxx15_Hashtable_nodeISt4pairIKN4BEEV7ASTNodeES4_EEESaIS8_EEvT_SB_T0_
00000000  w    F .gnu.linkonce.t._ZSt8_DestroyIPPN9__gnu_cxx15_Hashtable_nodeIPN4BEEV11ASTInteriorEEESaIS6_EEvT_S9_T0_	00000019 _ZSt8_DestroyIPPN9__gnu_cxx15_Hashtable_nodeIPN4BEEV11ASTInteriorEEESaIS6_EEvT_S9_T0_
00000000  w    F .gnu.linkonce.t._ZSt8_DestroyIPPN9__gnu_cxx15_Hashtable_nodeIPN4BEEV9ASTSymbolEEESaIS6_EEvT_S9_T0_	00000019 _ZSt8_DestroyIPPN9__gnu_cxx15_Hashtable_nodeIPN4BEEV9ASTSymbolEEESaIS6_EEvT_S9_T0_
00000000  w    F .gnu.linkonce.t._ZSt8_DestroyIPPN9__gnu_cxx15_Hashtable_nodeIPN4BEEV10ASTBVConstEEESaIS6_EEvT_S9_T0_	00000019 _ZSt8_DestroyIPPN9__gnu_cxx15_Hashtable_nodeIPN4BEEV10ASTBVConstEEESaIS6_EEvT_S9_T0_
00000000  w    F .gnu.linkonce.t._ZSt8_DestroyIPPN9__gnu_cxx15_Hashtable_nodeIN4BEEV7ASTNodeEEESaIS5_EEvT_S8_T0_	00000019 _ZSt8_DestroyIPPN9__gnu_cxx15_Hashtable_nodeIN4BEEV7ASTNodeEEESaIS5_EEvT_S8_T0_
00000000  w    F .gnu.linkonce.t._ZSt8_DestroyIPPN9__gnu_cxx15_Hashtable_nodeISt4pairIKN4BEEV7ASTNodeEiEEESaIS8_EEvT_SB_T0_	00000019 _ZSt8_DestroyIPPN9__gnu_cxx15_Hashtable_nodeISt4pairIKN4BEEV7ASTNodeEiEEESaIS8_EEvT_SB_T0_
00000000  w    F .gnu.linkonce.t._ZSt8_DestroyIPPN9__gnu_cxx15_Hashtable_nodeISt4pairIKN4BEEV7ASTNodeESt6vectorIS4_SaIS4_EEEEESaISB_EEvT_SE_T0_	00000019 _ZSt8_DestroyIPPN9__gnu_cxx15_Hashtable_nodeISt4pairIKN4BEEV7ASTNodeESt6vectorIS4_SaIS4_EEEEESaISB_EEvT_SE_T0_
00000000  w    F .gnu.linkonce.t._ZSt8_DestroyIPPN9__gnu_cxx15_Hashtable_nodeISt4pairIKN4BEEV7ASTNodeEPNS0_8hash_mapIjbNS0_4hashIjEESt8equal_toIjESaIbEEEEEESaISG_EEvT_SJ_T0_	00000019 _ZSt8_DestroyIPPN9__gnu_cxx15_Hashtable_nodeISt4pairIKN4BEEV7ASTNodeEPNS0_8hash_mapIjbNS0_4hashIjEESt8equal_toIjESaIbEEEEEESaISG_EEvT_SJ_T0_
00000000  w    F .gnu.linkonce.t._ZSt6fill_nIPPN9__gnu_cxx15_Hashtable_nodeISt4pairIKN4BEEV7ASTNodeES4_EEEjS8_ET_SA_T0_RKT1_	00000024 _ZSt6fill_nIPPN9__gnu_cxx15_Hashtable_nodeISt4pairIKN4BEEV7ASTNodeES4_EEEjS8_ET_SA_T0_RKT1_
00000000  w    F .gnu.linkonce.t._ZSt24__uninitialized_fill_n_aIPPN9__gnu_cxx15_Hashtable_nodeISt4pairIKN4BEEV7ASTNodeES4_EEEjS8_S8_EvT_T0_RKT1_SaIT2_E	00000009 _ZSt24__uninitialized_fill_n_aIPPN9__gnu_cxx15_Hashtable_nodeISt4pairIKN4BEEV7ASTNodeES4_EEEjS8_S8_EvT_T0_RKT1_SaIT2_E
00000000  w    F .gnu.linkonce.t._ZSt6fill_nIPPN9__gnu_cxx15_Hashtable_nodeIPN4BEEV11ASTInteriorEEEjS6_ET_S8_T0_RKT1_	00000024 _ZSt6fill_nIPPN9__gnu_cxx15_Hashtable_nodeIPN4BEEV11ASTInteriorEEEjS6_ET_S8_T0_RKT1_
00000000  w    F .gnu.linkonce.t._ZSt24__uninitialized_fill_n_aIPPN9__gnu_cxx15_Hashtable_nodeIPN4BEEV11ASTInteriorEEEjS6_S6_EvT_T0_RKT1_SaIT2_E	00000009 _ZSt24__uninitialized_fill_n_aIPPN9__gnu_cxx15_Hashtable_nodeIPN4BEEV11ASTInteriorEEEjS6_S6_EvT_T0_RKT1_SaIT2_E
00000000  w    F .gnu.linkonce.t._ZSt6fill_nIPPN9__gnu_cxx15_Hashtable_nodeIPN4BEEV9ASTSymbolEEEjS6_ET_S8_T0_RKT1_	00000024 _ZSt6fill_nIPPN9__gnu_cxx15_Hashtable_nodeIPN4BEEV9ASTSymbolEEEjS6_ET_S8_T0_RKT1_
00000000  w    F .gnu.linkonce.t._ZSt24__uninitialized_fill_n_aIPPN9__gnu_cxx15_Hashtable_nodeIPN4BEEV9ASTSymbolEEEjS6_S6_EvT_T0_RKT1_SaIT2_E	00000009 _ZSt24__uninitialized_fill_n_aIPPN9__gnu_cxx15_Hashtable_nodeIPN4BEEV9ASTSymbolEEEjS6_S6_EvT_T0_RKT1_SaIT2_E
00000000  w    F .gnu.linkonce.t._ZSt6fill_nIPPN9__gnu_cxx15_Hashtable_nodeIPN4BEEV10ASTBVConstEEEjS6_ET_S8_T0_RKT1_	00000024 _ZSt6fill_nIPPN9__gnu_cxx15_Hashtable_nodeIPN4BEEV10ASTBVConstEEEjS6_ET_S8_T0_RKT1_
00000000  w    F .gnu.linkonce.t._ZSt24__uninitialized_fill_n_aIPPN9__gnu_cxx15_Hashtable_nodeIPN4BEEV10ASTBVConstEEEjS6_S6_EvT_T0_RKT1_SaIT2_E	00000009 _ZSt24__uninitialized_fill_n_aIPPN9__gnu_cxx15_Hashtable_nodeIPN4BEEV10ASTBVConstEEEjS6_S6_EvT_T0_RKT1_SaIT2_E
00000000  w    F .gnu.linkonce.t._ZSt6fill_nIPPN9__gnu_cxx15_Hashtable_nodeIN4BEEV7ASTNodeEEEjS5_ET_S7_T0_RKT1_	00000024 _ZSt6fill_nIPPN9__gnu_cxx15_Hashtable_nodeIN4BEEV7ASTNodeEEEjS5_ET_S7_T0_RKT1_
00000000  w    F .gnu.linkonce.t._ZSt24__uninitialized_fill_n_aIPPN9__gnu_cxx15_Hashtable_nodeIN4BEEV7ASTNodeEEEjS5_S5_EvT_T0_RKT1_SaIT2_E	00000009 _ZSt24__uninitialized_fill_n_aIPPN9__gnu_cxx15_Hashtable_nodeIN4BEEV7ASTNodeEEEjS5_S5_EvT_T0_RKT1_SaIT2_E
00000000  w    F .gnu.linkonce.t._ZSt6fill_nIPPN9__gnu_cxx15_Hashtable_nodeISt4pairIKN4BEEV7ASTNodeEiEEEjS8_ET_SA_T0_RKT1_	00000024 _ZSt6fill_nIPPN9__gnu_cxx15_Hashtable_nodeISt4pairIKN4BEEV7ASTNodeEiEEEjS8_ET_SA_T0_RKT1_
00000000  w    F .gnu.linkonce.t._ZSt24__uninitialized_fill_n_aIPPN9__gnu_cxx15_Hashtable_nodeISt4pairIKN4BEEV7ASTNodeEiEEEjS8_S8_EvT_T0_RKT1_SaIT2_E	00000009 _ZSt24__uninitialized_fill_n_aIPPN9__gnu_cxx15_Hashtable_nodeISt4pairIKN4BEEV7ASTNodeEiEEEjS8_S8_EvT_T0_RKT1_SaIT2_E
00000000  w    F .gnu.linkonce.t._ZSt6fill_nIPPN9__gnu_cxx15_Hashtable_nodeISt4pairIKN4BEEV7ASTNodeESt6vectorIS4_SaIS4_EEEEEjSB_ET_SD_T0_RKT1_	00000024 _ZSt6fill_nIPPN9__gnu_cxx15_Hashtable_nodeISt4pairIKN4BEEV7ASTNodeESt6vectorIS4_SaIS4_EEEEEjSB_ET_SD_T0_RKT1_
00000000  w    F .gnu.linkonce.t._ZSt24__uninitialized_fill_n_aIPPN9__gnu_cxx15_Hashtable_nodeISt4pairIKN4BEEV7ASTNodeESt6vectorIS4_SaIS4_EEEEEjSB_SB_EvT_T0_RKT1_SaIT2_E	00000009 _ZSt24__uninitialized_fill_n_aIPPN9__gnu_cxx15_Hashtable_nodeISt4pairIKN4BEEV7ASTNodeESt6vectorIS4_SaIS4_EEEEEjSB_SB_EvT_T0_RKT1_SaIT2_E
00000000  w    F .gnu.linkonce.t._ZSt6fill_nIPPN9__gnu_cxx15_Hashtable_nodeISt4pairIKN4BEEV7ASTNodeEPNS0_8hash_mapIjbNS0_4hashIjEESt8equal_toIjESaIbEEEEEEjSG_ET_SI_T0_RKT1_	00000024 _ZSt6fill_nIPPN9__gnu_cxx15_Hashtable_nodeISt4pairIKN4BEEV7ASTNodeEPNS0_8hash_mapIjbNS0_4hashIjEESt8equal_toIjESaIbEEEEEEjSG_ET_SI_T0_RKT1_
00000000  w    F .gnu.linkonce.t._ZSt24__uninitialized_fill_n_aIPPN9__gnu_cxx15_Hashtable_nodeISt4pairIKN4BEEV7ASTNodeEPNS0_8hash_mapIjbNS0_4hashIjEESt8equal_toIjESaIbEEEEEEjSG_SG_EvT_T0_RKT1_SaIT2_E	00000009 _ZSt24__uninitialized_fill_n_aIPPN9__gnu_cxx15_Hashtable_nodeISt4pairIKN4BEEV7ASTNodeEPNS0_8hash_mapIjbNS0_4hashIjEESt8equal_toIjESaIbEEEEEEjSG_SG_EvT_T0_RKT1_SaIT2_E
00000000         *UND*	00000000 _ZNSt8ios_base4InitD1Ev
00000000  w    F .gnu.linkonce.t._ZSt4fillIN9__gnu_cxx17__normal_iteratorIPPNS0_15_Hashtable_nodeIPN4BEEV11ASTInteriorEEESt6vectorIS7_SaIS7_EEEES7_EvT_SD_RKT0_	0000001d _ZSt4fillIN9__gnu_cxx17__normal_iteratorIPPNS0_15_Hashtable_nodeIPN4BEEV11ASTInteriorEEESt6vectorIS7_SaIS7_EEEES7_EvT_SD_RKT0_
00000000  w    F .gnu.linkonce.t._ZSt4fillIN9__gnu_cxx17__normal_iteratorIPPNS0_15_Hashtable_nodeIPN4BEEV9ASTSymbolEEESt6vectorIS7_SaIS7_EEEES7_EvT_SD_RKT0_	0000001d _ZSt4fillIN9__gnu_cxx17__normal_iteratorIPPNS0_15_Hashtable_nodeIPN4BEEV9ASTSymbolEEESt6vectorIS7_SaIS7_EEEES7_EvT_SD_RKT0_
00000000  w    F .gnu.linkonce.t._ZSt4fillIN9__gnu_cxx17__normal_iteratorIPPNS0_15_Hashtable_nodeISt4pairIKN4BEEV7ASTNodeESt6vectorIS5_SaIS5_EEEEES7_ISC_SaISC_EEEESC_EvT_SH_RKT0_	0000001d _ZSt4fillIN9__gnu_cxx17__normal_iteratorIPPNS0_15_Hashtable_nodeISt4pairIKN4BEEV7ASTNodeESt6vectorIS5_SaIS5_EEEEES7_ISC_SaISC_EEEESC_EvT_SH_RKT0_
00000000  w    F .gnu.linkonce.t._ZSt4fillIN9__gnu_cxx17__normal_iteratorIPPNS0_15_Hashtable_nodeIN4BEEV7ASTNodeEEESt6vectorIS6_SaIS6_EEEES6_EvT_SC_RKT0_	0000001d _ZSt4fillIN9__gnu_cxx17__normal_iteratorIPPNS0_15_Hashtable_nodeIN4BEEV7ASTNodeEEESt6vectorIS6_SaIS6_EEEES6_EvT_SC_RKT0_
00000000  w    F .gnu.linkonce.t._ZSt4fillIN9__gnu_cxx17__normal_iteratorIPPNS0_15_Hashtable_nodeISt4pairIKN4BEEV7ASTNodeEPNS0_8hash_mapIjbNS0_4hashIjEESt8equal_toIjESaIbEEEEEESt6vectorISH_SaISH_EEEESH_EvT_SN_RKT0_	0000001d _ZSt4fillIN9__gnu_cxx17__normal_iteratorIPPNS0_15_Hashtable_nodeISt4pairIKN4BEEV7ASTNodeEPNS0_8hash_mapIjbNS0_4hashIjEESt8equal_toIjESaIbEEEEEESt6vectorISH_SaISH_EEEESH_EvT_SN_RKT0_
00000000  w    F .gnu.linkonce.t._ZSt4fillIN9__gnu_cxx17__normal_iteratorIPPNS0_15_Hashtable_nodeIPN4BEEV10ASTBVConstEEESt6vectorIS7_SaIS7_EEEES7_EvT_SD_RKT0_	0000001d _ZSt4fillIN9__gnu_cxx17__normal_iteratorIPPNS0_15_Hashtable_nodeIPN4BEEV10ASTBVConstEEESt6vectorIS7_SaIS7_EEEES7_EvT_SD_RKT0_
00000000  w    F .gnu.linkonce.t._ZSt4fillIN9__gnu_cxx17__normal_iteratorIPPNS0_15_Hashtable_nodeISt4pairIKN4BEEV7ASTNodeEiEEESt6vectorIS9_SaIS9_EEEES9_EvT_SF_RKT0_	0000001d _ZSt4fillIN9__gnu_cxx17__normal_iteratorIPPNS0_15_Hashtable_nodeISt4pairIKN4BEEV7ASTNodeEiEEESt6vectorIS9_SaIS9_EEEES9_EvT_SF_RKT0_
00000120 g     F .text	00000030 getType
00000150 g     F .text	0000001f getDegree
00000000  w    F .gnu.linkonce.t._ZSt6fill_nIN9__gnu_cxx17__normal_iteratorIPPNS0_15_Hashtable_nodeISt4pairIKN4BEEV7ASTNodeES5_EEESt6vectorIS9_SaIS9_EEEEjS9_ET_SF_T0_RKT1_	00000034 _ZSt6fill_nIN9__gnu_cxx17__normal_iteratorIPPNS0_15_Hashtable_nodeISt4pairIKN4BEEV7ASTNodeES5_EEESt6vectorIS9_SaIS9_EEEEjS9_ET_SF_T0_RKT1_
00000000  w    F .gnu.linkonce.t._ZSt24__uninitialized_fill_n_aIN9__gnu_cxx17__normal_iteratorIPPNS0_15_Hashtable_nodeISt4pairIKN4BEEV7ASTNodeES5_EEESt6vectorIS9_SaIS9_EEEEjS9_S9_EvT_T0_RKT1_SaIT2_E	0000001f _ZSt24__uninitialized_fill_n_aIN9__gnu_cxx17__normal_iteratorIPPNS0_15_Hashtable_nodeISt4pairIKN4BEEV7ASTNodeES5_EEESt6vectorIS9_SaIS9_EEEEjS9_S9_EvT_T0_RKT1_SaIT2_E
00000000  w    F .gnu.linkonce.t._ZSt6fill_nIN9__gnu_cxx17__normal_iteratorIPPNS0_15_Hashtable_nodeIPN4BEEV11ASTInteriorEEESt6vectorIS7_SaIS7_EEEEjS7_ET_SD_T0_RKT1_	00000034 _ZSt6fill_nIN9__gnu_cxx17__normal_iteratorIPPNS0_15_Hashtable_nodeIPN4BEEV11ASTInteriorEEESt6vectorIS7_SaIS7_EEEEjS7_ET_SD_T0_RKT1_
00000000  w    F .gnu.linkonce.t._ZSt24__uninitialized_fill_n_aIN9__gnu_cxx17__normal_iteratorIPPNS0_15_Hashtable_nodeIPN4BEEV11ASTInteriorEEESt6vectorIS7_SaIS7_EEEEjS7_S7_EvT_T0_RKT1_SaIT2_E	0000001f _ZSt24__uninitialized_fill_n_aIN9__gnu_cxx17__normal_iteratorIPPNS0_15_Hashtable_nodeIPN4BEEV11ASTInteriorEEESt6vectorIS7_SaIS7_EEEEjS7_S7_EvT_T0_RKT1_SaIT2_E
00000000  w    F .gnu.linkonce.t._ZSt6fill_nIN9__gnu_cxx17__normal_iteratorIPPNS0_15_Hashtable_nodeIPN4BEEV9ASTSymbolEEESt6vectorIS7_SaIS7_EEEEjS7_ET_SD_T0_RKT1_	00000034 _ZSt6fill_nIN9__gnu_cxx17__normal_iteratorIPPNS0_15_Hashtable_nodeIPN4BEEV9ASTSymbolEEESt6vectorIS7_SaIS7_EEEEjS7_ET_SD_T0_RKT1_
00000000  w    F .gnu.linkonce.t._ZSt24__uninitialized_fill_n_aIN9__gnu_cxx17__normal_iteratorIPPNS0_15_Hashtable_nodeIPN4BEEV9ASTSymbolEEESt6vectorIS7_SaIS7_EEEEjS7_S7_EvT_T0_RKT1_SaIT2_E	0000001f _ZSt24__uninitialized_fill_n_aIN9__gnu_cxx17__normal_iteratorIPPNS0_15_Hashtable_nodeIPN4BEEV9ASTSymbolEEESt6vectorIS7_SaIS7_EEEEjS7_S7_EvT_T0_RKT1_SaIT2_E
00000000  w    F .gnu.linkonce.t._ZSt6fill_nIN9__gnu_cxx17__normal_iteratorIPPNS0_15_Hashtable_nodeIPN4BEEV10ASTBVConstEEESt6vectorIS7_SaIS7_EEEEjS7_ET_SD_T0_RKT1_	00000034 _ZSt6fill_nIN9__gnu_cxx17__normal_iteratorIPPNS0_15_Hashtable_nodeIPN4BEEV10ASTBVConstEEESt6vectorIS7_SaIS7_EEEEjS7_ET_SD_T0_RKT1_
00000000  w    F .gnu.linkonce.t._ZSt24__uninitialized_fill_n_aIN9__gnu_cxx17__normal_iteratorIPPNS0_15_Hashtable_nodeIPN4BEEV10ASTBVConstEEESt6vectorIS7_SaIS7_EEEEjS7_S7_EvT_T0_RKT1_SaIT2_E	0000001f _ZSt24__uninitialized_fill_n_aIN9__gnu_cxx17__normal_iteratorIPPNS0_15_Hashtable_nodeIPN4BEEV10ASTBVConstEEESt6vectorIS7_SaIS7_EEEEjS7_S7_EvT_T0_RKT1_SaIT2_E
00000000  w    F .gnu.linkonce.t._ZSt6fill_nIN9__gnu_cxx17__normal_iteratorIPPNS0_15_Hashtable_nodeIN4BEEV7ASTNodeEEESt6vectorIS6_SaIS6_EEEEjS6_ET_SC_T0_RKT1_	00000034 _ZSt6fill_nIN9__gnu_cxx17__normal_iteratorIPPNS0_15_Hashtable_nodeIN4BEEV7ASTNodeEEESt6vectorIS6_SaIS6_EEEEjS6_ET_SC_T0_RKT1_
00000000  w    F .gnu.linkonce.t._ZSt24__uninitialized_fill_n_aIN9__gnu_cxx17__normal_iteratorIPPNS0_15_Hashtable_nodeIN4BEEV7ASTNodeEEESt6vectorIS6_SaIS6_EEEEjS6_S6_EvT_T0_RKT1_SaIT2_E	0000001f _ZSt24__uninitialized_fill_n_aIN9__gnu_cxx17__normal_iteratorIPPNS0_15_Hashtable_nodeIN4BEEV7ASTNodeEEESt6vectorIS6_SaIS6_EEEEjS6_S6_EvT_T0_RKT1_SaIT2_E
00000000  w    F .gnu.linkonce.t._ZSt6fill_nIN9__gnu_cxx17__normal_iteratorIPPNS0_15_Hashtable_nodeISt4pairIKN4BEEV7ASTNodeEiEEESt6vectorIS9_SaIS9_EEEEjS9_ET_SF_T0_RKT1_	00000034 _ZSt6fill_nIN9__gnu_cxx17__normal_iteratorIPPNS0_15_Hashtable_nodeISt4pairIKN4BEEV7ASTNodeEiEEESt6vectorIS9_SaIS9_EEEEjS9_ET_SF_T0_RKT1_
00000000  w    F .gnu.linkonce.t._ZSt24__uninitialized_fill_n_aIN9__gnu_cxx17__normal_iteratorIPPNS0_15_Hashtable_nodeISt4pairIKN4BEEV7ASTNodeEiEEESt6vectorIS9_SaIS9_EEEEjS9_S9_EvT_T0_RKT1_SaIT2_E	0000001f _ZSt24__uninitialized_fill_n_aIN9__gnu_cxx17__normal_iteratorIPPNS0_15_Hashtable_nodeISt4pairIKN4BEEV7ASTNodeEiEEESt6vectorIS9_SaIS9_EEEEjS9_S9_EvT_T0_RKT1_SaIT2_E
00000000  w    F .gnu.linkonce.t._ZSt6fill_nIN9__gnu_cxx17__normal_iteratorIPPNS0_15_Hashtable_nodeISt4pairIKN4BEEV7ASTNodeESt6vectorIS5_SaIS5_EEEEES7_ISC_SaISC_EEEEjSC_ET_SH_T0_RKT1_	00000034 _ZSt6fill_nIN9__gnu_cxx17__normal_iteratorIPPNS0_15_Hashtable_nodeISt4pairIKN4BEEV7ASTNodeESt6vectorIS5_SaIS5_EEEEES7_ISC_SaISC_EEEEjSC_ET_SH_T0_RKT1_
00000000  w    F .gnu.linkonce.t._ZSt24__uninitialized_fill_n_aIN9__gnu_cxx17__normal_iteratorIPPNS0_15_Hashtable_nodeISt4pairIKN4BEEV7ASTNodeESt6vectorIS5_SaIS5_EEEEES7_ISC_SaISC_EEEEjSC_SC_EvT_T0_RKT1_SaIT2_E	0000001f _ZSt24__uninitialized_fill_n_aIN9__gnu_cxx17__normal_iteratorIPPNS0_15_Hashtable_nodeISt4pairIKN4BEEV7ASTNodeESt6vectorIS5_SaIS5_EEEEES7_ISC_SaISC_EEEEjSC_SC_EvT_T0_RKT1_SaIT2_E
00000000  w    F .gnu.linkonce.t._ZSt6fill_nIN9__gnu_cxx17__normal_iteratorIPPNS0_15_Hashtable_nodeISt4pairIKN4BEEV7ASTNodeEPNS0_8hash_mapIjbNS0_4hashIjEESt8equal_toIjESaIbEEEEEESt6vectorISH_SaISH_EEEEjSH_ET_SN_T0_RKT1_	00000034 _ZSt6fill_nIN9__gnu_cxx17__normal_iteratorIPPNS0_15_Hashtable_nodeISt4pairIKN4BEEV7ASTNodeEPNS0_8hash_mapIjbNS0_4hashIjEESt8equal_toIjESaIbEEEEEESt6vectorISH_SaISH_EEEEjSH_ET_SN_T0_RKT1_
00000000  w    F .gnu.linkonce.t._ZSt24__uninitialized_fill_n_aIN9__gnu_cxx17__normal_iteratorIPPNS0_15_Hashtable_nodeISt4pairIKN4BEEV7ASTNodeEPNS0_8hash_mapIjbNS0_4hashIjEESt8equal_toIjESaIbEEEEEESt6vectorISH_SaISH_EEEEjSH_SH_EvT_T0_RKT1_SaIT2_E	0000001f _ZSt24__uninitialized_fill_n_aIN9__gnu_cxx17__normal_iteratorIPPNS0_15_Hashtable_nodeISt4pairIKN4BEEV7ASTNodeEPNS0_8hash_mapIjbNS0_4hashIjEESt8equal_toIjESaIbEEEEEESt6vectorISH_SaISH_EEEEjSH_SH_EvT_T0_RKT1_SaIT2_E
00000000  w    F .gnu.linkonce.t._ZSt8_DestroyIN9__gnu_cxx17__normal_iteratorIPPNS0_15_Hashtable_nodeISt4pairIKN4BEEV7ASTNodeES5_EEESt6vectorIS9_SaIS9_EEEESC_EvT_SF_T0_	00000019 _ZSt8_DestroyIN9__gnu_cxx17__normal_iteratorIPPNS0_15_Hashtable_nodeISt4pairIKN4BEEV7ASTNodeES5_EEESt6vectorIS9_SaIS9_EEEESC_EvT_SF_T0_
00000000  w    F .gnu.linkonce.t._ZSt8_DestroyIN9__gnu_cxx17__normal_iteratorIPPNS0_15_Hashtable_nodeIPN4BEEV9ASTSymbolEEESt6vectorIS7_SaIS7_EEEESA_EvT_SD_T0_	00000019 _ZSt8_DestroyIN9__gnu_cxx17__normal_iteratorIPPNS0_15_Hashtable_nodeIPN4BEEV9ASTSymbolEEESt6vectorIS7_SaIS7_EEEESA_EvT_SD_T0_
00000000  w    F .gnu.linkonce.t._ZSt8_DestroyIN9__gnu_cxx17__normal_iteratorIPPNS0_15_Hashtable_nodeIN4BEEV7ASTNodeEEESt6vectorIS6_SaIS6_EEEES9_EvT_SC_T0_	00000019 _ZSt8_DestroyIN9__gnu_cxx17__normal_iteratorIPPNS0_15_Hashtable_nodeIN4BEEV7ASTNodeEEESt6vectorIS6_SaIS6_EEEES9_EvT_SC_T0_
00000000  w    F .gnu.linkonce.t._ZSt8_DestroyIN9__gnu_cxx17__normal_iteratorIPPNS0_15_Hashtable_nodeIPN4BEEV11ASTInteriorEEESt6vectorIS7_SaIS7_EEEESA_EvT_SD_T0_	00000019 _ZSt8_DestroyIN9__gnu_cxx17__normal_iteratorIPPNS0_15_Hashtable_nodeIPN4BEEV11ASTInteriorEEESt6vectorIS7_SaIS7_EEEESA_EvT_SD_T0_
00000000  w    F .gnu.linkonce.t._ZSt8_DestroyIN9__gnu_cxx17__normal_iteratorIPPNS0_15_Hashtable_nodeISt4pairIKN4BEEV7ASTNodeEPNS0_8hash_mapIjbNS0_4hashIjEESt8equal_toIjESaIbEEEEEESt6vectorISH_SaISH_EEEESK_EvT_SN_T0_	00000019 _ZSt8_DestroyIN9__gnu_cxx17__normal_iteratorIPPNS0_15_Hashtable_nodeISt4pairIKN4BEEV7ASTNodeEPNS0_8hash_mapIjbNS0_4hashIjEESt8equal_toIjESaIbEEEEEESt6vectorISH_SaISH_EEEESK_EvT_SN_T0_
00000000  w    F .gnu.linkonce.t._ZSt8_DestroyIN9__gnu_cxx17__normal_iteratorIPPNS0_15_Hashtable_nodeISt4pairIKN4BEEV7ASTNodeESt6vectorIS5_SaIS5_EEEEES7_ISC_SaISC_EEEESE_EvT_SH_T0_	00000019 _ZSt8_DestroyIN9__gnu_cxx17__normal_iteratorIPPNS0_15_Hashtable_nodeISt4pairIKN4BEEV7ASTNodeESt6vectorIS5_SaIS5_EEEEES7_ISC_SaISC_EEEESE_EvT_SH_T0_
00000000  w    F .gnu.linkonce.t._ZSt8_DestroyIN9__gnu_cxx17__normal_iteratorIPPNS0_15_Hashtable_nodeIPN4BEEV10ASTBVConstEEESt6vectorIS7_SaIS7_EEEESA_EvT_SD_T0_	00000019 _ZSt8_DestroyIN9__gnu_cxx17__normal_iteratorIPPNS0_15_Hashtable_nodeIPN4BEEV10ASTBVConstEEESt6vectorIS7_SaIS7_EEEESA_EvT_SD_T0_
00000000  w    F .gnu.linkonce.t._ZSt8_DestroyIN9__gnu_cxx17__normal_iteratorIPPNS0_15_Hashtable_nodeISt4pairIKN4BEEV7ASTNodeEiEEESt6vectorIS9_SaIS9_EEEESC_EvT_SF_T0_	00000019 _ZSt8_DestroyIN9__gnu_cxx17__normal_iteratorIPPNS0_15_Hashtable_nodeISt4pairIKN4BEEV7ASTNodeEiEEESt6vectorIS9_SaIS9_EEEESC_EvT_SF_T0_
00000000  w    F .gnu.linkonce.t._ZSt4fillIN9__gnu_cxx17__normal_iteratorIPPNS0_15_Hashtable_nodeISt4pairIKN4BEEV7ASTNodeES5_EEESt6vectorIS9_SaIS9_EEEES9_EvT_SF_RKT0_	0000001d _ZSt4fillIN9__gnu_cxx17__normal_iteratorIPPNS0_15_Hashtable_nodeISt4pairIKN4BEEV7ASTNodeES5_EEESt6vectorIS9_SaIS9_EEEES9_EvT_SF_RKT0_
00000170 g     F .text	0000003a vc_getBVLength
00000000         *UND*	00000000 _ZN4BEEV10FatalErrorEPKc
00000000         *UND*	00000000 _Unwind_Resume
000001b0 g     F .text	000000d7 vc_simplify
00000000         *UND*	00000000 _Znwj
00000000         *UND*	00000000 _ZN4BEEV7BeevMgr12SimplifyTermERKNS_7ASTNodeE
00000000         *UND*	00000000 _ZN4BEEV7BeevMgr24SimplifyFormula_TopLevelERKNS_7ASTNodeEb
00000000         *UND*	00000000 _ZdlPv
00000290 g     F .text	0000003a getBVLength
00000000  w    F .gnu.linkonce.t._ZSt11lower_boundIPKmmET_S2_S2_RKT0_	00000043 _ZSt11lower_boundIPKmmET_S2_S2_RKT0_
00000000  w    F .gnu.linkonce.t._ZN9__gnu_cxx16__stl_next_primeEm	0000002e _ZN9__gnu_cxx16__stl_next_primeEm
00000000  w    F .gnu.linkonce.t._ZNSaIN4BEEV7ASTNodeEEC1Ev	00000005 _ZNSaIN4BEEV7ASTNodeEEC1Ev
00000000  w    F .gnu.linkonce.t._ZNSaIN4BEEV7ASTNodeEED1Ev	00000005 _ZNSaIN4BEEV7ASTNodeEED1Ev
00000000  w    F .gnu.linkonce.t._ZNSaIPN9__gnu_cxx15_Hashtable_nodeIPN4BEEV9ASTSymbolEEEED1Ev	00000005 _ZNSaIPN9__gnu_cxx15_Hashtable_nodeIPN4BEEV9ASTSymbolEEEED1Ev
00000000  w    F .gnu.linkonce.t._ZNSaIPN9__gnu_cxx15_Hashtable_nodeIPN4BEEV9ASTSymbolEEEED2Ev	00000005 _ZNSaIPN9__gnu_cxx15_Hashtable_nodeIPN4BEEV9ASTSymbolEEEED2Ev
00000000  w    F .gnu.linkonce.t._ZNSaIPN9__gnu_cxx15_Hashtable_nodeIPN4BEEV10ASTBVConstEEEED1Ev	00000005 _ZNSaIPN9__gnu_cxx15_Hashtable_nodeIPN4BEEV10ASTBVConstEEEED1Ev
00000000  w    F .gnu.linkonce.t._ZNSaIPN9__gnu_cxx15_Hashtable_nodeIPN4BEEV10ASTBVConstEEEED2Ev	00000005 _ZNSaIPN9__gnu_cxx15_Hashtable_nodeIPN4BEEV10ASTBVConstEEEED2Ev
00000000  w    F .gnu.linkonce.t._ZNSaIPN9__gnu_cxx15_Hashtable_nodeIPN4BEEV11ASTInteriorEEEED1Ev	00000005 _ZNSaIPN9__gnu_cxx15_Hashtable_nodeIPN4BEEV11ASTInteriorEEEED1Ev
00000000  w    F .gnu.linkonce.t._ZNSaIPN9__gnu_cxx15_Hashtable_nodeIPN4BEEV11ASTInteriorEEEED2Ev	00000005 _ZNSaIPN9__gnu_cxx15_Hashtable_nodeIPN4BEEV11ASTInteriorEEEED2Ev
00000000  w    F .gnu.linkonce.t._ZNSaIPSt6vectorIN4BEEV7ASTNodeESaIS1_EEED1Ev	00000005 _ZNSaIPSt6vectorIN4BEEV7ASTNodeESaIS1_EEED1Ev
00000000  w    F .gnu.linkonce.t._ZNSaIPSt6vectorIN4BEEV7ASTNodeESaIS1_EEED2Ev	00000005 _ZNSaIPSt6vectorIN4BEEV7ASTNodeESaIS1_EEED2Ev
00000000  w    F .gnu.linkonce.t._ZNSaISt4pairIN4BEEV7ASTNodeES1_EED1Ev	00000005 _ZNSaISt4pairIN4BEEV7ASTNodeES1_EED1Ev
00000000  w    F .gnu.linkonce.t._ZNSaISt4pairIN4BEEV7ASTNodeES1_EED2Ev	00000005 _ZNSaISt4pairIN4BEEV7ASTNodeES1_EED2Ev
00000000  w    F .gnu.linkonce.t._ZNSaIPN4BEEV11ASTInteriorEED1Ev	00000005 _ZNSaIPN4BEEV11ASTInteriorEED1Ev
00000000  w    F .gnu.linkonce.t._ZNSaIPN4BEEV9ASTSymbolEED1Ev	00000005 _ZNSaIPN4BEEV9ASTSymbolEED1Ev
00000000  w    F .gnu.linkonce.t._ZNSaIPN4BEEV10ASTBVConstEED1Ev	00000005 _ZNSaIPN4BEEV10ASTBVConstEED1Ev
00000000  w    F .gnu.linkonce.t._ZNSaIN9__gnu_cxx15_Hashtable_nodeIPN4BEEV11ASTInteriorEEEED1Ev	00000005 _ZNSaIN9__gnu_cxx15_Hashtable_nodeIPN4BEEV11ASTInteriorEEEED1Ev
00000000  w    F .gnu.linkonce.t._ZNSaIN9__gnu_cxx15_Hashtable_nodeIPN4BEEV9ASTSymbolEEEED1Ev	00000005 _ZNSaIN9__gnu_cxx15_Hashtable_nodeIPN4BEEV9ASTSymbolEEEED1Ev
00000000  w    F .gnu.linkonce.t._ZNSaIN9__gnu_cxx15_Hashtable_nodeIPN4BEEV10ASTBVConstEEEED1Ev	00000005 _ZNSaIN9__gnu_cxx15_Hashtable_nodeIPN4BEEV10ASTBVConstEEEED1Ev
00000000         *UND*	00000000 _ZNSt8ios_base4InitC1Ev
00000000         *UND*	00000000 __dso_handle
00000000         *UND*	00000000 __cxa_atexit
00000350 g     F .text	0000004f vc_assertFormula
00000000         *UND*	00000000 _ZN4BEEV16_kind_categoriesE
00000000         *UND*	00000000 _ZN4BEEV10FatalErrorEPKcRKNS_7ASTNodeEi
00000000         *UND*	00000000 _ZN4BEEV7BeevMgr11BVTypeCheckERKNS_7ASTNodeE
00000000         *UND*	00000000 _ZN4BEEV7BeevMgr9AddAssertERKNS_7ASTNodeE
000003a0 g     F .text	00000064 getBVUnsignedLongLong
00000000         *UND*	00000000 _ZNK4BEEV7ASTNode10GetBVConstEv
00000000         *UND*	00000000 BitVector_to_Bin
00000000         *UND*	00000000 __strtoull_internal
00000000         *UND*	00000000 BitVector_Dispose
00000410 g     F .text	0000003f vc_isBool
00000450 g     F .text	00000056 vc_getCounterExample
00000000         *UND*	00000000 _ZN4BEEV7BeevMgr17GetCounterExampleEbRKNS_7ASTNodeE
00000000  w    F .gnu.linkonce.t._ZN4BEEV7ASTNodeaSERKS0_	0000004d _ZN4BEEV7ASTNodeaSERKS0_
00000000  w    F .gnu.linkonce.t._ZNSt12_Vector_baseISt4pairIN4BEEV7ASTNodeES2_ESaIS3_EE12_Vector_implD1Ev	00000005 _ZNSt12_Vector_baseISt4pairIN4BEEV7ASTNodeES2_ESaIS3_EE12_Vector_implD1Ev
00000000  w    F .gnu.linkonce.t._ZN9__gnu_cxx9hashtableIPN4BEEV10ASTBVConstES3_NS2_16ASTBVConstHasherESt9_IdentityIS3_ENS2_15ASTBVConstEqualESaIS3_EE5clearEv	00000088 _ZN9__gnu_cxx9hashtableIPN4BEEV10ASTBVConstES3_NS2_16ASTBVConstHasherESt9_IdentityIS3_ENS2_15ASTBVConstEqualESaIS3_EE5clearEv
00000000  w    F .gnu.linkonce.t._ZNSt12_Vector_baseIPSt6vectorIN4BEEV7ASTNodeESaIS2_EESaIS5_EE12_Vector_implD1Ev	00000005 _ZNSt12_Vector_baseIPSt6vectorIN4BEEV7ASTNodeESaIS2_EESaIS5_EE12_Vector_implD1Ev
00000000  w    F .gnu.linkonce.t._ZN9__gnu_cxx9hashtableIPN4BEEV11ASTInteriorES3_NS2_17ASTInteriorHasherESt9_IdentityIS3_ENS2_16ASTInteriorEqualESaIS3_EE5clearEv	00000088 _ZN9__gnu_cxx9hashtableIPN4BEEV11ASTInteriorES3_NS2_17ASTInteriorHasherESt9_IdentityIS3_ENS2_16ASTInteriorEqualESaIS3_EE5clearEv
00000000  w    F .gnu.linkonce.t._ZNSt12_Vector_baseIPN9__gnu_cxx15_Hashtable_nodeIPN4BEEV11ASTInteriorEEESaIS6_EE12_Vector_implD1Ev	00000005 _ZNSt12_Vector_baseIPN9__gnu_cxx15_Hashtable_nodeIPN4BEEV11ASTInteriorEEESaIS6_EE12_Vector_implD1Ev
00000000  w    F .gnu.linkonce.t._ZNSt12_Vector_baseIPN9__gnu_cxx15_Hashtable_nodeIPN4BEEV10ASTBVConstEEESaIS6_EE12_Vector_implD1Ev	00000005 _ZNSt12_Vector_baseIPN9__gnu_cxx15_Hashtable_nodeIPN4BEEV10ASTBVConstEEESaIS6_EE12_Vector_implD1Ev
00000000  w    F .gnu.linkonce.t._ZNSt12_Vector_baseIPN9__gnu_cxx15_Hashtable_nodeIPN4BEEV9ASTSymbolEEESaIS6_EE12_Vector_implD1Ev	00000005 _ZNSt12_Vector_baseIPN9__gnu_cxx15_Hashtable_nodeIPN4BEEV9ASTSymbolEEESaIS6_EE12_Vector_implD1Ev
00000000  w    F .gnu.linkonce.t._ZN9__gnu_cxx9hashtableIPN4BEEV9ASTSymbolES3_NS2_15ASTSymbolHasherESt9_IdentityIS3_ENS2_14ASTSymbolEqualESaIS3_EE5clearEv	00000088 _ZN9__gnu_cxx9hashtableIPN4BEEV9ASTSymbolES3_NS2_15ASTSymbolHasherESt9_IdentityIS3_ENS2_14ASTSymbolEqualESaIS3_EE5clearEv
00000000  w    F .gnu.linkonce.t._ZNSt12_Vector_baseIPN9__gnu_cxx15_Hashtable_nodeIPN4BEEV10ASTBVConstEEESaIS6_EED2Ev	00000017 _ZNSt12_Vector_baseIPN9__gnu_cxx15_Hashtable_nodeIPN4BEEV10ASTBVConstEEESaIS6_EED2Ev
00000000  w    F .gnu.linkonce.t._ZNSt12_Vector_baseIPSt6vectorIN4BEEV7ASTNodeESaIS2_EESaIS5_EED2Ev	00000017 _ZNSt12_Vector_baseIPSt6vectorIN4BEEV7ASTNodeESaIS2_EESaIS5_EED2Ev
00000000  w    F .gnu.linkonce.t._ZNSt12_Vector_baseIPN9__gnu_cxx15_Hashtable_nodeIPN4BEEV11ASTInteriorEEESaIS6_EED2Ev	00000017 _ZNSt12_Vector_baseIPN9__gnu_cxx15_Hashtable_nodeIPN4BEEV11ASTInteriorEEESaIS6_EED2Ev
00000000  w    F .gnu.linkonce.t._ZNSt12_Vector_baseISt4pairIN4BEEV7ASTNodeES2_ESaIS3_EED2Ev	00000017 _ZNSt12_Vector_baseISt4pairIN4BEEV7ASTNodeES2_ESaIS3_EED2Ev
00000000  w    F .gnu.linkonce.t._ZNSt12_Vector_baseIPN9__gnu_cxx15_Hashtable_nodeIPN4BEEV9ASTSymbolEEESaIS6_EED2Ev	00000017 _ZNSt12_Vector_baseIPN9__gnu_cxx15_Hashtable_nodeIPN4BEEV9ASTSymbolEEESaIS6_EED2Ev
00000000  w    F .gnu.linkonce.t._ZNSt6vectorIN4BEEV7ASTNodeESaIS1_EEC1ERKS2_	0000001c _ZNSt6vectorIN4BEEV7ASTNodeESaIS1_EEC1ERKS2_
00000000         *UND*	00000000 _ZTVSt15basic_streambufIcSt11char_traitsIcEE
00000000         *UND*	00000000 _ZNSt6localeD1Ev
00000000  w    F .gnu.linkonce.t._ZN9__gnu_cxx9hashtableIPN4BEEV9ASTSymbolES3_NS2_15ASTSymbolHasherESt9_IdentityIS3_ENS2_14ASTSymbolEqualESaIS3_EED1Ev	0000003f _ZN9__gnu_cxx9hashtableIPN4BEEV9ASTSymbolES3_NS2_15ASTSymbolHasherESt9_IdentityIS3_ENS2_14ASTSymbolEqualESaIS3_EED1Ev
00000000  w    F .gnu.linkonce.t._ZNSt6vectorIPN9__gnu_cxx15_Hashtable_nodeIPN4BEEV9ASTSymbolEEESaIS6_EED1Ev	00000034 _ZNSt6vectorIPN9__gnu_cxx15_Hashtable_nodeIPN4BEEV9ASTSymbolEEESaIS6_EED1Ev
00000000  w    F .gnu.linkonce.t._ZNSt6vectorIPN9__gnu_cxx15_Hashtable_nodeIPN4BEEV9ASTSymbolEEESaIS6_EE14_M_fill_insertENS0_17__normal_iteratorIPS6_S8_EEjRKS6_	00000206 _ZNSt6vectorIPN9__gnu_cxx15_Hashtable_nodeIPN4BEEV9ASTSymbolEEESaIS6_EE14_M_fill_insertENS0_17__normal_iteratorIPS6_S8_EEjRKS6_
00000000         *UND*	00000000 memmove
00000000         *UND*	00000000 _ZSt17__throw_bad_allocv
00000000         *UND*	00000000 _ZSt20__throw_length_errorPKc
00000000  w    F .gnu.linkonce.t._ZNSt6vectorIPN9__gnu_cxx15_Hashtable_nodeIPN4BEEV9ASTSymbolEEESaIS6_EE7reserveEj	000000bd _ZNSt6vectorIPN9__gnu_cxx15_Hashtable_nodeIPN4BEEV9ASTSymbolEEESaIS6_EE7reserveEj
00000000  w    F .gnu.linkonce.t._ZN9__gnu_cxx9hashtableIPN4BEEV11ASTInteriorES3_NS2_17ASTInteriorHasherESt9_IdentityIS3_ENS2_16ASTInteriorEqualESaIS3_EED1Ev	0000003f _ZN9__gnu_cxx9hashtableIPN4BEEV11ASTInteriorES3_NS2_17ASTInteriorHasherESt9_IdentityIS3_ENS2_16ASTInteriorEqualESaIS3_EED1Ev
00000000  w    F .gnu.linkonce.t._ZNSt6vectorIPN9__gnu_cxx15_Hashtable_nodeIPN4BEEV11ASTInteriorEEESaIS6_EED1Ev	00000034 _ZNSt6vectorIPN9__gnu_cxx15_Hashtable_nodeIPN4BEEV11ASTInteriorEEESaIS6_EED1Ev
00000000  w    F .gnu.linkonce.t._ZNSt6vectorIPN9__gnu_cxx15_Hashtable_nodeIPN4BEEV11ASTInteriorEEESaIS6_EE14_M_fill_insertENS0_17__normal_iteratorIPS6_S8_EEjRKS6_	00000206 _ZNSt6vectorIPN9__gnu_cxx15_Hashtable_nodeIPN4BEEV11ASTInteriorEEESaIS6_EE14_M_fill_insertENS0_17__normal_iteratorIPS6_S8_EEjRKS6_
00000000  w    F .gnu.linkonce.t._ZNSt6vectorIPN9__gnu_cxx15_Hashtable_nodeIPN4BEEV11ASTInteriorEEESaIS6_EE7reserveEj	000000bd _ZNSt6vectorIPN9__gnu_cxx15_Hashtable_nodeIPN4BEEV11ASTInteriorEEESaIS6_EE7reserveEj
00000000  w    F .gnu.linkonce.t._ZNSt6vectorIPN9__gnu_cxx15_Hashtable_nodeISt4pairIKN4BEEV7ASTNodeEiEEESaIS8_EE14_M_fill_insertENS0_17__normal_iteratorIPS8_SA_EEjRKS8_	00000206 _ZNSt6vectorIPN9__gnu_cxx15_Hashtable_nodeISt4pairIKN4BEEV7ASTNodeEiEEESaIS8_EE14_M_fill_insertENS0_17__normal_iteratorIPS8_SA_EEjRKS8_
00000000  w    F .gnu.linkonce.t._ZNSt6vectorIPN9__gnu_cxx15_Hashtable_nodeISt4pairIKN4BEEV7ASTNodeEiEEESaIS8_EE7reserveEj	000000bd _ZNSt6vectorIPN9__gnu_cxx15_Hashtable_nodeISt4pairIKN4BEEV7ASTNodeEiEEESaIS8_EE7reserveEj
00000000  w    F .gnu.linkonce.t._ZNSt6vectorIPN9__gnu_cxx15_Hashtable_nodeISt4pairIKN4BEEV7ASTNodeES_IS4_SaIS4_EEEEESaISA_EE14_M_fill_insertENS0_17__normal_iteratorIPSA_SC_EEjRKSA_	00000206 _ZNSt6vectorIPN9__gnu_cxx15_Hashtable_nodeISt4pairIKN4BEEV7ASTNodeES_IS4_SaIS4_EEEEESaISA_EE14_M_fill_insertENS0_17__normal_iteratorIPSA_SC_EEjRKSA_
00000000  w    F .gnu.linkonce.t._ZNSt6vectorIPN9__gnu_cxx15_Hashtable_nodeISt4pairIKN4BEEV7ASTNodeES_IS4_SaIS4_EEEEESaISA_EE7reserveEj	000000bd _ZNSt6vectorIPN9__gnu_cxx15_Hashtable_nodeISt4pairIKN4BEEV7ASTNodeES_IS4_SaIS4_EEEEESaISA_EE7reserveEj
00000000  w    F .gnu.linkonce.t._ZNSt6vectorIPN9__gnu_cxx15_Hashtable_nodeIN4BEEV7ASTNodeEEESaIS5_EE14_M_fill_insertENS0_17__normal_iteratorIPS5_S7_EEjRKS5_	00000206 _ZNSt6vectorIPN9__gnu_cxx15_Hashtable_nodeIN4BEEV7ASTNodeEEESaIS5_EE14_M_fill_insertENS0_17__normal_iteratorIPS5_S7_EEjRKS5_
00000000  w    F .gnu.linkonce.t._ZNSt6vectorIPN9__gnu_cxx15_Hashtable_nodeIN4BEEV7ASTNodeEEESaIS5_EE7reserveEj	000000bd _ZNSt6vectorIPN9__gnu_cxx15_Hashtable_nodeIN4BEEV7ASTNodeEEESaIS5_EE7reserveEj
00000000  w    F .gnu.linkonce.t._ZN9__gnu_cxx9hashtableIN4BEEV7ASTNodeES2_NS2_13ASTNodeHasherESt9_IdentityIS2_ENS2_12ASTNodeEqualESaIS2_EEC1EjRKS3_RKS6_RKS7_	000000ba _ZN9__gnu_cxx9hashtableIN4BEEV7ASTNodeES2_NS2_13ASTNodeHasherESt9_IdentityIS2_ENS2_12ASTNodeEqualESaIS2_EEC1EjRKS3_RKS6_RKS7_
00000000  w    F .gnu.linkonce.t._ZN9__gnu_cxx9hashtableIPN4BEEV10ASTBVConstES3_NS2_16ASTBVConstHasherESt9_IdentityIS3_ENS2_15ASTBVConstEqualESaIS3_EED1Ev	0000003f _ZN9__gnu_cxx9hashtableIPN4BEEV10ASTBVConstES3_NS2_16ASTBVConstHasherESt9_IdentityIS3_ENS2_15ASTBVConstEqualESaIS3_EED1Ev
00000000  w    F .gnu.linkonce.t._ZN9__gnu_cxx8hash_setIPN4BEEV10ASTBVConstENS2_16ASTBVConstHasherENS2_15ASTBVConstEqualESaIS3_EED1Ev	0000003f _ZN9__gnu_cxx8hash_setIPN4BEEV10ASTBVConstENS2_16ASTBVConstHasherENS2_15ASTBVConstEqualESaIS3_EED1Ev
00000000  w    F .gnu.linkonce.t._ZNSt6vectorIPN9__gnu_cxx15_Hashtable_nodeIPN4BEEV10ASTBVConstEEESaIS6_EED1Ev	00000034 _ZNSt6vectorIPN9__gnu_cxx15_Hashtable_nodeIPN4BEEV10ASTBVConstEEESaIS6_EED1Ev
00000000  w    F .gnu.linkonce.t._ZNSt6vectorIPN9__gnu_cxx15_Hashtable_nodeIPN4BEEV10ASTBVConstEEESaIS6_EE14_M_fill_insertENS0_17__normal_iteratorIPS6_S8_EEjRKS6_	00000206 _ZNSt6vectorIPN9__gnu_cxx15_Hashtable_nodeIPN4BEEV10ASTBVConstEEESaIS6_EE14_M_fill_insertENS0_17__normal_iteratorIPS6_S8_EEjRKS6_
00000000  w    F .gnu.linkonce.t._ZNSt6vectorIPN9__gnu_cxx15_Hashtable_nodeIPN4BEEV10ASTBVConstEEESaIS6_EE7reserveEj	000000bd _ZNSt6vectorIPN9__gnu_cxx15_Hashtable_nodeIPN4BEEV10ASTBVConstEEESaIS6_EE7reserveEj
00000000  w    F .gnu.linkonce.t._ZNSt6vectorIPN9__gnu_cxx15_Hashtable_nodeISt4pairIKN4BEEV7ASTNodeEPNS0_8hash_mapIjbNS0_4hashIjEESt8equal_toIjESaIbEEEEEESaISG_EE14_M_fill_insertENS0_17__normal_iteratorIPSG_SI_EEjRKSG_	00000206 _ZNSt6vectorIPN9__gnu_cxx15_Hashtable_nodeISt4pairIKN4BEEV7ASTNodeEPNS0_8hash_mapIjbNS0_4hashIjEESt8equal_toIjESaIbEEEEEESaISG_EE14_M_fill_insertENS0_17__normal_iteratorIPSG_SI_EEjRKSG_
00000000  w    F .gnu.linkonce.t._ZNSt6vectorIPN9__gnu_cxx15_Hashtable_nodeISt4pairIKN4BEEV7ASTNodeEPNS0_8hash_mapIjbNS0_4hashIjEESt8equal_toIjESaIbEEEEEESaISG_EE7reserveEj	000000bd _ZNSt6vectorIPN9__gnu_cxx15_Hashtable_nodeISt4pairIKN4BEEV7ASTNodeEPNS0_8hash_mapIjbNS0_4hashIjEESt8equal_toIjESaIbEEEEEESaISG_EE7reserveEj
00000000  w    F .gnu.linkonce.t._ZNSt6vectorIPN9__gnu_cxx15_Hashtable_nodeISt4pairIKN4BEEV7ASTNodeES4_EEESaIS8_EE14_M_fill_insertENS0_17__normal_iteratorIPS8_SA_EEjRKS8_	00000206 _ZNSt6vectorIPN9__gnu_cxx15_Hashtable_nodeISt4pairIKN4BEEV7ASTNodeES4_EEESaIS8_EE14_M_fill_insertENS0_17__normal_iteratorIPS8_SA_EEjRKS8_
00000000  w    F .gnu.linkonce.t._ZNSt6vectorIPN9__gnu_cxx15_Hashtable_nodeISt4pairIKN4BEEV7ASTNodeES4_EEESaIS8_EE7reserveEj	000000bd _ZNSt6vectorIPN9__gnu_cxx15_Hashtable_nodeISt4pairIKN4BEEV7ASTNodeES4_EEESaIS8_EE7reserveEj
00000000  w    F .gnu.linkonce.t._ZNSt6vectorIPN9__gnu_cxx15_Hashtable_nodeISt4pairIKN4BEEV7ASTNodeES4_EEESaIS8_EE5eraseENS0_17__normal_iteratorIPS8_SA_EESD_	00000062 _ZNSt6vectorIPN9__gnu_cxx15_Hashtable_nodeISt4pairIKN4BEEV7ASTNodeES4_EEESaIS8_EE5eraseENS0_17__normal_iteratorIPS8_SA_EESD_
00000000  w    F .gnu.linkonce.t._ZN9__gnu_cxx9hashtableISt4pairIKN4BEEV7ASTNodeES3_ES3_NS3_13ASTNodeHasherESt10_Select1stIS5_ENS3_12ASTNodeEqualESaIS3_EE5clearEv	0000011e _ZN9__gnu_cxx9hashtableISt4pairIKN4BEEV7ASTNodeES3_ES3_NS3_13ASTNodeHasherESt10_Select1stIS5_ENS3_12ASTNodeEqualESaIS3_EE5clearEv
00000000  w    F .gnu.linkonce.t._ZN9__gnu_cxx9hashtableISt4pairIKN4BEEV7ASTNodeES3_ES3_NS3_13ASTNodeHasherESt10_Select1stIS5_ENS3_12ASTNodeEqualESaIS3_EED1Ev	00000075 _ZN9__gnu_cxx9hashtableISt4pairIKN4BEEV7ASTNodeES3_ES3_NS3_13ASTNodeHasherESt10_Select1stIS5_ENS3_12ASTNodeEqualESaIS3_EED1Ev
00000000  w    F .gnu.linkonce.t._ZN9__gnu_cxx8hash_mapIN4BEEV7ASTNodeES2_NS2_13ASTNodeHasherENS2_12ASTNodeEqualESaIS2_EEC1Ev	000000bb _ZN9__gnu_cxx8hash_mapIN4BEEV7ASTNodeES2_NS2_13ASTNodeHasherENS2_12ASTNodeEqualESaIS2_EEC1Ev
00000000  w    F .gnu.linkonce.t._ZN9__gnu_cxx8hash_mapIN4BEEV7ASTNodeES2_NS2_13ASTNodeHasherENS2_12ASTNodeEqualESaIS2_EEC1Ej	000000ba _ZN9__gnu_cxx8hash_mapIN4BEEV7ASTNodeES2_NS2_13ASTNodeHasherENS2_12ASTNodeEqualESaIS2_EEC1Ej
00000000  w    F .gnu.linkonce.t._ZN9__gnu_cxx9hashtableISt4pairIKN4BEEV7ASTNodeES3_ES3_NS3_13ASTNodeHasherESt10_Select1stIS5_ENS3_12ASTNodeEqualESaIS3_EE6resizeEj	00000187 _ZN9__gnu_cxx9hashtableISt4pairIKN4BEEV7ASTNodeES3_ES3_NS3_13ASTNodeHasherESt10_Select1stIS5_ENS3_12ASTNodeEqualESaIS3_EE6resizeEj
00000000  w    F .gnu.linkonce.t._ZSt8_DestroyIN9__gnu_cxx17__normal_iteratorIPN4BEEV7ASTNodeESt6vectorIS3_SaIS3_EEEES6_EvT_S9_T0_	00000047 _ZSt8_DestroyIN9__gnu_cxx17__normal_iteratorIPN4BEEV7ASTNodeESt6vectorIS3_SaIS3_EEEES6_EvT_S9_T0_
00000000  w    F .gnu.linkonce.t._ZN9__gnu_cxx9hashtableIN4BEEV7ASTNodeES2_NS2_13ASTNodeHasherESt9_IdentityIS2_ENS2_12ASTNodeEqualESaIS2_EE5clearEv	000000c8 _ZN9__gnu_cxx9hashtableIN4BEEV7ASTNodeES2_NS2_13ASTNodeHasherESt9_IdentityIS2_ENS2_12ASTNodeEqualESaIS2_EE5clearEv
00000000  w    F .gnu.linkonce.t._ZN9__gnu_cxx9hashtableIN4BEEV7ASTNodeES2_NS2_13ASTNodeHasherESt9_IdentityIS2_ENS2_12ASTNodeEqualESaIS2_EED1Ev	00000075 _ZN9__gnu_cxx9hashtableIN4BEEV7ASTNodeES2_NS2_13ASTNodeHasherESt9_IdentityIS2_ENS2_12ASTNodeEqualESaIS2_EED1Ev
00000000  w    F .gnu.linkonce.t._ZN9__gnu_cxx8hash_setIN4BEEV7ASTNodeENS2_13ASTNodeHasherENS2_12ASTNodeEqualESaIS2_EEC1Ev	0000002b _ZN9__gnu_cxx8hash_setIN4BEEV7ASTNodeENS2_13ASTNodeHasherENS2_12ASTNodeEqualESaIS2_EEC1Ev
00000000  w    F .gnu.linkonce.t._ZSt8_DestroyIPSt4pairIN4BEEV7ASTNodeES2_ESaIS3_EEvT_S6_T0_	00000092 _ZSt8_DestroyIPSt4pairIN4BEEV7ASTNodeES2_ESaIS3_EEvT_S6_T0_
00000000  w    F .gnu.linkonce.t._ZN9__gnu_cxx9hashtableISt4pairIKN4BEEV7ASTNodeEPNS_8hash_mapIjbNS_4hashIjEESt8equal_toIjESaIbEEEES3_NS3_13ASTNodeHasherESt10_Select1stISD_ENS3_12ASTNodeEqualESaISC_EE5clearEv	000000c8 _ZN9__gnu_cxx9hashtableISt4pairIKN4BEEV7ASTNodeEPNS_8hash_mapIjbNS_4hashIjEESt8equal_toIjESaIbEEEES3_NS3_13ASTNodeHasherESt10_Select1stISD_ENS3_12ASTNodeEqualESaISC_EE5clearEv
00000000  w    F .gnu.linkonce.t._ZN9__gnu_cxx9hashtableISt4pairIKN4BEEV7ASTNodeEPNS_8hash_mapIjbNS_4hashIjEESt8equal_toIjESaIbEEEES3_NS3_13ASTNodeHasherESt10_Select1stISD_ENS3_12ASTNodeEqualESaISC_EED1Ev	00000075 _ZN9__gnu_cxx9hashtableISt4pairIKN4BEEV7ASTNodeEPNS_8hash_mapIjbNS_4hashIjEESt8equal_toIjESaIbEEEES3_NS3_13ASTNodeHasherESt10_Select1stISD_ENS3_12ASTNodeEqualESaISC_EED1Ev
00000000  w    F .gnu.linkonce.t._ZN9__gnu_cxx8hash_mapIN4BEEV7ASTNodeEPNS0_IjbNS_4hashIjEESt8equal_toIjESaIbEEENS2_13ASTNodeHasherENS2_12ASTNodeEqualESaIS9_EEC1Ev	000000bb _ZN9__gnu_cxx8hash_mapIN4BEEV7ASTNodeEPNS0_IjbNS_4hashIjEESt8equal_toIjESaIbEEENS2_13ASTNodeHasherENS2_12ASTNodeEqualESaIS9_EEC1Ev
00000000  w    F .gnu.linkonce.t._ZN9__gnu_cxx9hashtableISt4pairIKN4BEEV7ASTNodeEiES3_NS3_13ASTNodeHasherESt10_Select1stIS5_ENS3_12ASTNodeEqualESaIiEE5clearEv	000000c8 _ZN9__gnu_cxx9hashtableISt4pairIKN4BEEV7ASTNodeEiES3_NS3_13ASTNodeHasherESt10_Select1stIS5_ENS3_12ASTNodeEqualESaIiEE5clearEv
00000000  w    F .gnu.linkonce.t._ZN9__gnu_cxx9hashtableISt4pairIKN4BEEV7ASTNodeEiES3_NS3_13ASTNodeHasherESt10_Select1stIS5_ENS3_12ASTNodeEqualESaIiEED1Ev	00000075 _ZN9__gnu_cxx9hashtableISt4pairIKN4BEEV7ASTNodeEiES3_NS3_13ASTNodeHasherESt10_Select1stIS5_ENS3_12ASTNodeEqualESaIiEED1Ev
00000000  w    F .gnu.linkonce.t._ZN9__gnu_cxx8hash_mapIN4BEEV7ASTNodeEiNS2_13ASTNodeHasherENS2_12ASTNodeEqualESaIiEEC1Ev	000000bb _ZN9__gnu_cxx8hash_mapIN4BEEV7ASTNodeEiNS2_13ASTNodeHasherENS2_12ASTNodeEqualESaIiEEC1Ev
000004b0 g     F .text	0000007a vc_printExpr
00000000         *UND*	00000000 _ZN4BEEV7ASTNodeC1ERKS0_
00000000         *UND*	00000000 _ZNK4BEEV7ASTNode8PL_PrintERSoi
00000000         *UND*	00000000 _ZSt4endlIcSt11char_traitsIcEERSt13basic_ostreamIT_T0_ES6_
00000000         *UND*	00000000 _ZNSolsEm
000006c0 g     F .text	00000011 vc_printVarDecls
000006e0 g     F .text	000000a1 vc_printQuery
00000000         *UND*	00000000 _ZN4BEEV7BeevMgr8GetQueryEv
00000790 g     F .text	00000243 vc_arrayType
00000000         *UND*	00000000 _ZN4BEEV13_empty_ASTVecE
00000000         *UND*	00000000 _ZN4BEEV7BeevMgr10CreateNodeENS_4KindERKNS_7ASTNodeES4_RKSt6vectorIS2_SaIS2_EE
000009e0 g     F .text	0000011a vc_writeExpr
00000000         *UND*	00000000 _ZN4BEEV7BeevMgr10CreateNodeENS_4KindERKNS_7ASTNodeES4_S4_RKSt6vectorIS2_SaIS2_EE
00000000  w    F .gnu.linkonce.t._ZN9__gnu_cxx9hashtableISt4pairIKN4BEEV7ASTNodeES3_ES3_NS3_13ASTNodeHasherESt10_Select1stIS5_ENS3_12ASTNodeEqualESaIS3_EE14find_or_insertERKS5_	00000115 _ZN9__gnu_cxx9hashtableISt4pairIKN4BEEV7ASTNodeES3_ES3_NS3_13ASTNodeHasherESt10_Select1stIS5_ENS3_12ASTNodeEqualESaIS3_EE14find_or_insertERKS5_
00000000         *UND*	00000000 __cxa_begin_catch
00000000         *UND*	00000000 __cxa_rethrow
00000000         *UND*	00000000 __cxa_end_catch
00000b00 g     F .text	00000312 _Z28vc_getTermFromCounterExamplePvS_PN4BEEV22CompleteCounterExampleE
00000000         *UND*	00000000 _ZN4BEEV7BeevMgr10CreateNodeENS_4KindERKSt6vectorINS_7ASTNodeESaIS3_EE
00000000         *UND*	00000000 _ZN4BEEV7BeevMgr15CreateZeroConstEj
00000e20 g     F .text	000000bc vc_eqExpr
00000ee0 g     F .text	0000009b vc_boolType
00000f80 g     F .text	0000009b vc_trueExpr
00001020 g     F .text	0000009b vc_falseExpr
000010c0 g     F .text	000000ab vc_notExpr
00000000         *UND*	00000000 _ZN4BEEV7BeevMgr10CreateNodeENS_4KindERKNS_7ASTNodeERKSt6vectorIS2_SaIS2_EE
00001170 g     F .text	000000ae vc_andExpr
00001220 g     F .text	000000ae vc_orExpr
00000000  w    F .gnu.linkonce.t._ZNSt6vectorIN4BEEV7ASTNodeESaIS1_EE13_M_insert_auxEN9__gnu_cxx17__normal_iteratorIPS1_S3_EERKS1_	0000036e _ZNSt6vectorIN4BEEV7ASTNodeESaIS1_EE13_M_insert_auxEN9__gnu_cxx17__normal_iteratorIPS1_S3_EERKS1_
000012d0 g     F .text	000000ea vc_varExpr1
00000000         *UND*	00000000 _ZN4BEEV7BeevMgr12CreateSymbolEPKc
000013c0 g     F .text	000002b6 vc_varExpr
00001680 g     F .text	0000023e vc_iteExpr
000018c0 g     F .text	0000014c vc_impliesExpr
00001a10 g     F .text	0000014c vc_iffExpr
00001b60 g     F .text	00000253 vc_boolToBVExpr
00000000         *UND*	00000000 _ZN4BEEV7BeevMgr14CreateOneConstEj
00001dc0 g     F .text	0000010f vc_bvType
00000000         *UND*	00000000 _ZN4BEEV7BeevMgr13CreateBVConstEjy
00001ed0 g     F .text	00000094 vc_getType
00001f70 g     F .text	0000003e vc_bvCreateMemoryArray
00001fb0 g     F .text	00000013 vc_bv32Type
00001fd0 g     F .text	000000ab vc_bvConstExprFromStr
00000000         *UND*	00000000 _ZN4BEEV7BeevMgr13CreateBVConstEPKci
00002080 g     F .text	000000ab vc_bvConstExprFromInt
00002130 g     F .text	00000017 vc_bv32ConstExprFromInt
00002150 g     F .text	000000ab vc_bvConstExprFromLL
00002200 g     F .text	000000cc vc_bvLtExpr
000022d0 g     F .text	000000cc vc_bvLeExpr
000023a0 g     F .text	000000cc vc_bvGtExpr
00002470 g     F .text	000000cc vc_bvGeExpr
00002540 g     F .text	000000cc vc_sbvLtExpr
00002610 g     F .text	000000cc vc_sbvLeExpr
000026e0 g     F .text	000000cc vc_sbvGtExpr
000027b0 g     F .text	000000cc vc_sbvGeExpr
00002880 g     F .text	000000f2 vc_bvUMinusExpr
00002980 g     F .text	000000f2 vc_bvNotExpr
00002a80 g     F .text	000001a8 vc_bvExtract
00002c30 g     F .text	00000200 vc_bvBoolExtract
00002e30 g     F .text	000003a3 vc_bvSignExtend
000031e0 g     F .text	000000bc getBVInt
000032a0 g     F .text	000000bc getBVUnsigned
00000000  w    F .gnu.linkonce.t._ZSt8_DestroyIPN4BEEV7ASTNodeESaIS1_EEvT_S4_T0_	00000047 _ZSt8_DestroyIPN4BEEV7ASTNodeESaIS1_EEvT_S4_T0_
00000000  w    F .gnu.linkonce.t._ZNSt6vectorIN4BEEV7ASTNodeESaIS1_EED1Ev	00000054 _ZNSt6vectorIN4BEEV7ASTNodeESaIS1_EED1Ev
00003360 g     F .text	0000004d vc_DeleteExpr
000033b0 g     F .text	0000003b getExprID
00000000  w    F .gnu.linkonce.t._ZN9__gnu_cxx9hashtableISt4pairIKN4BEEV7ASTNodeES3_ES3_NS3_13ASTNodeHasherESt10_Select1stIS5_ENS3_12ASTNodeEqualESaIS3_EE12_M_copy_fromERKSB_	0000024e _ZN9__gnu_cxx9hashtableISt4pairIKN4BEEV7ASTNodeES3_ES3_NS3_13ASTNodeHasherESt10_Select1stIS5_ENS3_12ASTNodeEqualESaIS3_EE12_M_copy_fromERKSB_
000033f0 g     F .text	00000140 vc_getWholeCounterExample
00003530 g     F .text	00000208 vc_printExprFile
00000000         *UND*	00000000 _ZNSt8ios_baseC2Ev
00000000         *UND*	00000000 _ZTVSt9basic_iosIcSt11char_traitsIcEE
00000000         *UND*	00000000 _ZNSt9basic_iosIcSt11char_traitsIcEE4initEPSt15basic_streambufIcS1_E
00000000         *UND*	00000000 _ZNSt6localeC1Ev
00000000         *UND*	00000000 _ZNSt9basic_iosIcSt11char_traitsIcEE5rdbufEPSt15basic_streambufIcS1_E
00000000         *UND*	00000000 _ZNSt8ios_baseD2Ev
00003740 g     F .text	00000229 vc_printCounterExampleFile
00000000  w    F .gnu.linkonce.t._ZN9__gnu_cxx9hashtableISt4pairIKN4BEEV7ASTNodeESt6vectorIS3_SaIS3_EEES3_NS3_13ASTNodeHasherESt10_Select1stIS8_ENS3_12ASTNodeEqualESaIS7_EE5clearEv	00000140 _ZN9__gnu_cxx9hashtableISt4pairIKN4BEEV7ASTNodeESt6vectorIS3_SaIS3_EEES3_NS3_13ASTNodeHasherESt10_Select1stIS8_ENS3_12ASTNodeEqualESaIS7_EE5clearEv
00000000  w    F .gnu.linkonce.t._ZN9__gnu_cxx8hash_mapIN4BEEV7ASTNodeESt6vectorIS2_SaIS2_EENS2_13ASTNodeHasherENS2_12ASTNodeEqualESaIS5_EEC1Ev	000000bb _ZN9__gnu_cxx8hash_mapIN4BEEV7ASTNodeESt6vectorIS2_SaIS2_EENS2_13ASTNodeHasherENS2_12ASTNodeEqualESaIS5_EEC1Ev
00000000  w    F .gnu.linkonce.t._ZN9__gnu_cxx8hash_mapIN4BEEV7ASTNodeESt6vectorIS2_SaIS2_EENS2_13ASTNodeHasherENS2_12ASTNodeEqualESaIS5_EED1Ev	00000075 _ZN9__gnu_cxx8hash_mapIN4BEEV7ASTNodeESt6vectorIS2_SaIS2_EENS2_13ASTNodeHasherENS2_12ASTNodeEqualESaIS5_EED1Ev
00000000  w    F .gnu.linkonce.t._ZN4BEEV7BeevMgrC1Ev	000009c3 _ZN4BEEV7BeevMgrC1Ev
00000000         *UND*	00000000 _ZN4BEEV7BeevMgr10GetAssertsEv
00003b90 g     F .text	00000014 vc_printAsserts
00003bb0 g     F .text	0000018f vc_query
00000000         *UND*	00000000 _ZN4BEEV7BeevMgr8AddQueryERKNS_7ASTNodeE
00000000         *UND*	00000000 _ZN4BEEV7BeevMgr11TopLevelSATERKNS_7ASTNodeES3_
00003d40 g     F .text	00000169 vc_andExprN
00003eb0 g     F .text	00000169 vc_orExprN
00004020 g     F .text	00000231 getChild
00004260 g     F .text	00000160 vc_getHashQueryStateToBuffer
00000000         *UND*	00000000 __assert_fail
000043c0 g     F .text	00000083 vc_Destroy
00000000         *UND*	00000000 _ZN4BEEV7BeevMgrD1Ev
00004450 g     F .text	00000102 vc_readExpr
00004560 g     F .text	00000114 vc_bvConcatExpr
00004680 g     F .text	000000f8 vc_bvPlusExpr
00004780 g     F .text	000000f0 vc_bvWriteToMemoryArray
00004870 g     F .text	000000c8 vc_bvReadMemoryArray
00004940 g     F .text	0000001a vc_bv32PlusExpr
00004960 g     F .text	000000f8 vc_bvMinusExpr
00004a60 g     F .text	0000001a vc_bv32MinusExpr
00004a80 g     F .text	000000f8 vc_bvMultExpr
00004b80 g     F .text	0000001a vc_bv32MultExpr
00004ba0 g     F .text	000000f8 vc_bvDivExpr
00004ca0 g     F .text	000000f8 vc_bvModExpr
00004da0 g     F .text	000000f8 vc_sbvDivExpr
00004ea0 g     F .text	000000f8 vc_sbvModExpr
00004fa0 g     F .text	00000102 vc_bvAndExpr
000050b0 g     F .text	00000102 vc_bvOrExpr
000051c0 g     F .text	00000102 vc_bvXorExpr
000052d0 g     F .text	0000016c vc_bvLeftShiftExpr
00005440 g     F .text	000000ab vc_bvVar32LeftShiftExpr
000054f0 g     F .text	0000002a vc_bv32LeftShiftExpr
00005520 g     F .text	00000345 vc_bvRightShiftExpr
00005870 g     F .text	0000009a vc_bvVar32RightShiftExpr
00005910 g     F .text	000000a5 vc_bvVar32DivByPowOfTwoExpr
000059c0 g     F .text	0000002a vc_bv32RightShiftExpr
000059f0 g     F .text	00000301 typeString
00000000         *UND*	00000000 _ZNSt18basic_stringstreamIcSt11char_traitsIcESaIcEEC1ESt13_Ios_Openmode
00000000         *UND*	00000000 _ZNKSt15basic_stringbufIcSt11char_traitsIcESaIcEE3strEv
00000000         *UND*	00000000 strdup
00000000         *UND*	00000000 _ZNSs4_Rep20_S_empty_rep_storageE
00000000         *UND*	00000000 _ZTVSt18basic_stringstreamIcSt11char_traitsIcESaIcEE
00000000         *UND*	00000000 _ZTVSt15basic_stringbufIcSt11char_traitsIcESaIcEE
00000000         *UND*	00000000 _ZTTSt18basic_stringstreamIcSt11char_traitsIcESaIcEE
00000000         *UND*	00000000 _ZN9__gnu_cxx18__exchange_and_addEPVii
00000000         *UND*	00000000 _ZNSs4_Rep10_M_destroyERKSaIcE
00005d00 g     F .text	000002d3 vc_setFlags
00000000         *UND*	00000000 _ZNSsC1EPKcRKSaIcE
00000000         *UND*	00000000 _ZNSs6appendEPKcj
00000000         *UND*	00000000 _ZNSs6appendERKSs
00000000         *UND*	00000000 _ZN4BEEV8optimizeE
00000000         *UND*	00000000 _ZN4BEEV15wordlevel_solveE
00000000         *UND*	00000000 _ZN4BEEV19print_STPinput_backE
00000000         *UND*	00000000 _ZN4BEEV24construct_counterexampleE
00000000         *UND*	00000000 _ZN4BEEV20check_counterexampleE
00000000         *UND*	00000000 _ZN4BEEV26variable_activity_optimizeE
00000000         *UND*	00000000 _ZN4BEEV20smtlib_parser_enableE
00000000         *UND*	00000000 _ZStlsIcSt11char_traitsIcESaIcEERSt13basic_ostreamIT_T0_ES7_RKSbIS4_S5_T1_E
00000000         *UND*	00000000 _ZN4BEEV13linear_searchE
00000000         *UND*	00000000 _ZN4BEEV12print_outputE
00000000         *UND*	00000000 _ZN4BEEV28print_arrayval_declaredorderE
00000000         *UND*	00000000 _ZN4BEEV20arrayread_refinementE
00000000         *UND*	00000000 _ZN4BEEV5statsE
00000000         *UND*	00000000 _ZN4BEEV21arraywrite_refinementE
00000000         *UND*	00000000 _ZN4BEEV11print_nodesE
00000000         *UND*	00000000 _ZN4BEEV18print_sat_varorderE
00005fe0 g     F .text	000000aa vc_createValidityChecker
00000000         *UND*	00000000 BitVector_Boot
00000000         *UND*	00000000 BitVector_Error
00000000         *UND*	00000000 _ZStlsISt11char_traitsIcEERSt13basic_ostreamIcT_ES5_PKh
00006090 g     F .text	00000538 vc_printQueryStateToBuffer
00000000         *UND*	00000000 malloc
00000000         *UND*	00000000 memcpy
00000000         *UND*	00000000 stderr
00000000         *UND*	00000000 fprintf
000065d0 g     F .text	00000501 vc_printCounterExampleToBuffer
00000000         *UND*	00000000 _ZTTSt19basic_ostringstreamIcSt11char_traitsIcESaIcEE
00000000         *UND*	00000000 _ZTVSt19basic_ostringstreamIcSt11char_traitsIcESaIcEE
00006ae0 g     F .text	0000036e vc_printExprToBuffer
00006e50 g     F .text	00000301 exprString
00000000         *UND*	00000000 __gxx_personality_v0


